(dp0
I0
(i__main__
Link
p1
(dp2
S'url'
p3
S'http://www.library.cornell.edu/'
p4
sS'pagerank'
p5
cnumpy.core.multiarray
scalar
p6
(cnumpy
dtype
p7
(S'f8'
p8
I0
I1
tp9
Rp10
(I3
S'<'
p11
NNNI-1
I-1
I0
tp12
bS'F)\x88\xb3\xc7\xf3\xb1?'
p13
tp14
Rp15
sS'anchorText'
p16
c__builtin__
set
p17
((lp18
S'parent directory'
p19
aS'search'
p20
aS'cul catalog'
p21
aS'library catalog'
p22
aS'cornell university library'
p23
aS'skip to main content'
p24
aS'catalog'
p25
aS'library'
p26
aS'home'
p27
atp28
Rp29
sS'title'
p30
S'home | cornell university library'
p31
sbsI1
(i__main__
Link
p32
(dp33
g3
S'http://www.library.cornell.edu/aboutus/'
p34
sg5
g6
(g10
S'\x8b\xd7\xb6,\r\xc5\xa4?'
p35
tp36
Rp37
sg16
g17
((lp38
S'skip to main content'
p39
aS'about us'
p40
atp41
Rp42
sg30
S'about us | cornell university library'
p43
sbsI2
(i__main__
Link
p44
(dp45
g3
S'http://www.library.cornell.edu/aboutus/coll/strength/select/'
p46
sg5
g6
(g10
S'!l\xe7\x14\xdb\xfdd?'
p47
tp48
Rp49
sg16
g17
((lp50
S'skip to main content'
p51
aS'selectors'
p52
aS'list of subject librarians'
p53
aS'subject area specialists'
p54
aS'library staff who select materials'
p55
aS'contact list for subject librarians'
p56
atp57
Rp58
sg30
S'cornell university library selectors | cornell university library'
p59
sbsI3
(i__main__
Link
p60
(dp61
g3
S'http://www.library.cornell.edu/aboutus/collections/'
p62
sg5
g6
(g10
S'\xc6=\x82\xddmQP?'
p63
tp64
Rp65
sg16
g17
((lp66
S'skip to main content'
p67
aS'collections'
p68
atp69
Rp70
sg30
S'collections | cornell university library'
p71
sbsI4
(i__main__
Link
p72
(dp73
g3
S'http://www.library.cornell.edu/aboutus/collections/strength/'
p74
sg5
g6
(g10
S'\xa1\x1b\x02\xc2\xc9\xe2v?'
p75
tp76
Rp77
sg16
g17
((lp78
S'skip to main content'
p79
aS'collections'
p80
aS'collection strengths'
p81
aS'collections overview'
p82
aS'library collections'
p83
atp84
Rp85
sg30
S'collections overview | cornell university library'
p86
sbsI5
(i__main__
Link
p87
(dp88
g3
S'http://www.library.cornell.edu/aboutus/collections/strength/special/'
p89
sg5
g6
(g10
S';\x93T\x9e\x05\xd2C?'
p90
tp91
Rp92
sg16
g17
((lp93
S'skip to main content'
p94
aS'special collections'
p95
atp96
Rp97
sg30
S'special collections | cornell university library'
p98
sbsI6
(i__main__
Link
p99
(dp100
g3
S'http://www.library.cornell.edu/aboutus/culpartners/'
p101
sg5
g6
(g10
S'w\xde\xcf\xd9\xd2\xa8]?'
p102
tp103
Rp104
sg16
g17
((lp105
S'skip to main content'
p106
aS'partnerships & initiatives'
p107
atp108
Rp109
sg30
S'partnerships & initiatives | cornell university library'
p110
sbsI7
(i__main__
Link
p111
(dp112
g3
S'http://www.library.cornell.edu/aboutus/inside/'
p113
sg5
g6
(g10
S'\xba\x01;\xe4\x02\xb0l?'
p114
tp115
Rp116
sg16
g17
((lp117
S'skip to main content'
p118
aS'inside the library'
p119
atp120
Rp121
sg30
S'inside the library | cornell university library'
p122
sbsI8
(i__main__
Link
p123
(dp124
g3
S'http://www.library.cornell.edu/aboutus/inside/depts/'
p125
sg5
g6
(g10
S'\\\xf4)\xf1\xc3R`?'
p126
tp127
Rp128
sg16
g17
((lp129
S'skip to main content'
p130
aS'central departments'
p131
atp132
Rp133
sg30
S'central departments | cornell university library'
p134
sbsI9
(i__main__
Link
p135
(dp136
g3
S'http://www.library.cornell.edu/aboutus/inside/depts/ils/'
p137
sg5
g6
(g10
S'\xbb\xe5\x0f\x85\x9e\x9dD?'
p138
tp139
Rp140
sg16
g17
((lp141
S'skip to main content'
p142
aS'interlibrary services'
p143
aS'interlibrary loan'
p144
atp145
Rp146
sg30
S'interlibrary services | cornell university library'
p147
sbsI10
(i__main__
Link
p148
(dp149
g3
S'http://www.library.cornell.edu/aboutus/inside/history/'
p150
sg5
g6
(g10
S'\x17!\x1eV22`?'
p151
tp152
Rp153
sg16
g17
((lp154
S'skip to main content'
p155
aS'history and purpose'
p156
atp157
Rp158
sg30
S'history and purpose | cornell university library'
p159
sbsI11
(i__main__
Link
p160
(dp161
g3
S'http://www.library.cornell.edu/aboutus/inside/libraries/'
p162
sg5
g6
(g10
S'\x9c\x15\xb6\x8e\xf6\xf2d?'
p163
tp164
Rp165
sg16
g17
((lp166
S'skip to main content'
p167
aS'contact the library'
p168
aS'libraries'
p169
aS'list of libraries'
p170
aS'indvidual libraries'
p171
aS'unit libraries'
p172
aS'individual libraries'
p173
atp174
Rp175
sg30
S'libraries | cornell university library'
p176
sbsI12
(i__main__
Link
p177
(dp178
g3
S'http://www.library.cornell.edu/aboutus/inside/policies/'
p179
sg5
g6
(g10
S'\x0e\x7f\xd8\\o\x03`?'
p180
tp181
Rp182
sg16
g17
((lp183
S'skip to main content'
p184
aS'public policies'
p185
atp186
Rp187
sg30
S'public policies | cornell university library'
p188
sbsI13
(i__main__
Link
p189
(dp190
g3
S'http://www.library.cornell.edu/aboutus/inside/publications/'
p191
sg5
g6
(g10
S'\x17!\x1eV22`?'
p192
tp193
Rp194
sg16
g17
((lp195
S'skip to main content'
p196
aS'library publications'
p197
atp198
Rp199
sg30
S'library publications | cornell university library'
p200
sbsI14
(i__main__
Link
p201
(dp202
g3
S'http://www.library.cornell.edu/aboutus/inside/strategicplanning/'
p203
sg5
g6
(g10
S'\x17!\x1eV22`?'
p204
tp205
Rp206
sg16
g17
((lp207
S'skip to main content'
p208
aS'strategic plan'
p209
atp210
Rp211
sg30
S'strategic planning | cornell university library'
p212
sbsI15
(i__main__
Link
p213
(dp214
g3
S'http://www.library.cornell.edu/aboutus/nondisclosure/'
p215
sg5
g6
(g10
S'\xc5\xfd\xa9\x98\xcf\xddC?'
p216
tp217
Rp218
sg16
g17
((lp219
S'1'
p220
aS'3.'
p221
aS'nondisclosure clauses in licenses'
p222
aS'4.'
p223
aS'skip to main content'
p224
aS'3'
p225
aS'2'
p226
aS'4'
p227
aS'2.'
p228
aS'1.'
p229
atp230
Rp231
sg30
S'nondisclosure clauses | cornell university library'
p232
sbsI16
(i__main__
Link
p233
(dp234
g3
S'http://www.library.cornell.edu/aboutus/partners/Cornell%20Faculty%20and%20Programs/'
p235
sg5
g6
(g10
S'\x1f.w\xe8\xabI@?'
p236
tp237
Rp238
sg16
g17
((lp239
S'skip to main content'
p240
atp241
Rp242
sg30
S'partnerships & initiatives | cornell university library'
p243
sbsI17
(i__main__
Link
p244
(dp245
g3
S'http://www.library.cornell.edu/aboutus/partners/Corporate%20Partnerships/'
p246
sg5
g6
(g10
S'@\x1d5\xc2\xa3[@?'
p247
tp248
Rp249
sg16
g17
((lp250
S'skip to main content'
p251
atp252
Rp253
sg30
S'partnerships & initiatives | cornell university library'
p254
sbsI18
(i__main__
Link
p255
(dp256
g3
S'http://www.library.cornell.edu/aboutus/partners/Global%20Engagement/'
p257
sg5
g6
(g10
S'@\x1d5\xc2\xa3[@?'
p258
tp259
Rp260
sg16
g17
((lp261
S'skip to main content'
p262
atp263
Rp264
sg30
S'partnerships and initiatives | cornell university library'
p265
sbsI19
(i__main__
Link
p266
(dp267
g3
S'http://www.library.cornell.edu/aboutus/partners/Other%20Universities%20and%20University%20Libraries/'
p268
sg5
g6
(g10
S'@\x1d5\xc2\xa3[@?'
p269
tp270
Rp271
sg16
g17
((lp272
S'skip to main content'
p273
atp274
Rp275
sg30
S'partnerships & initiatives | cornell university library'
p276
sbsI20
(i__main__
Link
p277
(dp278
g3
S'http://www.library.cornell.edu/aboutus/partners/othergrants/'
p279
sg5
g6
(g10
S'\x1bm\x1d0\xf9wH?'
p280
tp281
Rp282
sg16
g17
((lp283
S'skip to main content'
p284
aS'other grants received recently'
p285
aS'other grants'
p286
atp287
Rp288
sg30
S'other grants received recently | cornell university library'
p289
sbsI21
(i__main__
Link
p290
(dp291
g3
S'http://www.library.cornell.edu/aboutus/staff/'
p292
sg5
g6
(g10
S'\xad\xfcw\xa6\x94\xa5H?'
p293
tp294
Rp295
sg16
g17
((lp296
S'skip to main content'
p297
aS'staff'
p298
atp299
Rp300
sg30
S'staff | cornell university library'
p301
sbsI22
(i__main__
Link
p302
(dp303
g3
S'http://www.library.cornell.edu/aboutus/staff/leg/'
p304
sg5
g6
(g10
S'W\x17\xbe\x1d\xe99^?'
p305
tp306
Rp307
sg16
g17
((lp308
S'edward weissman'
p309
aS'oya rieger'
p310
aS'xin li'
p311
aS'library executive group'
p312
aS'janet mccue'
p313
aS'lee cartmill'
p314
aS'anne kenney'
p315
aS'skip to main content'
p316
aS'john saylor'
p317
aS'dean krafft'
p318
aS'jim leblanc'
p319
atp320
Rp321
sg30
S'library executive group | cornell university library'
p322
sbsI23
(i__main__
Link
p323
(dp324
g3
S'http://www.library.cornell.edu/aboutus/staff/staffdir/'
p325
sg5
g6
(g10
S'3BfW\xdf\xfd_?'
p326
tp327
Rp328
sg16
g17
((lp329
S'skip to main content'
p330
ag220
aS'\xc2\xab first'
p331
aS'staff directory'
p332
aS'\xe2\x80\xb9 previous'
p333
atp334
Rp335
sg30
S'staff directory | cornell university library'
p336
sbsI24
(i__main__
Link
p337
(dp338
g3
S'http://www.library.cornell.edu/aboutus/staff/staffdir?page=1/'
p339
sg5
g6
(g10
S'ozO\xe7FRF?'
p340
tp341
Rp342
sg16
g17
((lp343
S'skip to main content'
p344
aS'next \xe2\x80\xba'
p345
ag226
aS'\xe2\x80\xb9 previous'
p346
atp347
Rp348
sg30
S'staff directory | cornell university library'
p349
sbsI25
(i__main__
Link
p350
(dp351
g3
S'http://www.library.cornell.edu/aboutus/staff/staffdir?page=2/'
p352
sg5
g6
(g10
S'ozO\xe7FRF?'
p353
tp354
Rp355
sg16
g17
((lp356
S'skip to main content'
p357
ag225
aS'next \xe2\x80\xba'
p358
aS'\xe2\x80\xb9 previous'
p359
atp360
Rp361
sg30
S'staff directory | cornell university library'
p362
sbsI26
(i__main__
Link
p363
(dp364
g3
S'http://www.library.cornell.edu/aboutus/staff/staffdir?page=3/'
p365
sg5
g6
(g10
S'ozO\xe7FRF?'
p366
tp367
Rp368
sg16
g17
((lp369
S'skip to main content'
p370
aS'last \xc2\xbb'
p371
aS'next \xe2\x80\xba'
p372
ag227
atp373
Rp374
sg30
S'staff directory | cornell university library'
p375
sbsI27
(i__main__
Link
p376
(dp377
g3
S'http://www.library.cornell.edu/aboutus/staff/ul/'
p378
sg5
g6
(g10
S'd\xed\xbc\xc6q\xc9^?'
p379
tp380
Rp381
sg16
g17
((lp382
S'more...'
p383
aS'skip to main content'
p384
aS'university librarian'
p385
atp386
Rp387
sg30
S'university librarian | cornell university library'
p388
sbsI28
(i__main__
Link
p389
(dp390
g3
S'http://www.library.cornell.edu/aboutus/staff/ul/pubs/'
p391
sg5
g6
(g10
S'\xd1\xd0\xfc\xc5k\xe9C?'
p392
tp393
Rp394
sg16
g17
((lp395
S'skip to main content'
p396
aS'selected publications'
p397
atp398
Rp399
sg30
S'selected publications | cornell university library'
p400
sbsI29
(i__main__
Link
p401
(dp402
g3
S'http://www.library.cornell.edu/aboutus/visit/'
p403
sg5
g6
(g10
S'd\x85 Y\xa2#x?'
p404
tp405
Rp406
sg16
g17
((lp407
S'skip to main content'
p408
aS'visitor information'
p409
aS'for visitors'
p410
atp411
Rp412
sg30
S'visitor information | cornell university library'
p413
sbsI30
(i__main__
Link
p414
(dp415
g3
S'http://www.library.cornell.edu/aboutus/visit/address/'
p416
sg5
g6
(g10
S'\xf5t\x95g&|a?'
p417
tp418
Rp419
sg16
g17
((lp420
S'skip to main content'
p421
aS'addresses'
p422
atp423
Rp424
sg30
S'addresses | cornell university library'
p425
sbsI31
(i__main__
Link
p426
(dp427
g3
S'http://www.library.cornell.edu/aboutus/visit/priv/'
p428
sg5
g6
(g10
S'\xf8\x80\xa5\x91\xf7\x03d?'
p429
tp430
Rp431
sg16
g17
((lp432
S'visitor privileges'
p433
aS'skip to main content'
p434
aS'visitors'
p435
atp436
Rp437
sg30
S'visitor privileges | cornell university library'
p438
sbsI32
(i__main__
Link
p439
(dp440
g3
S'http://www.library.cornell.edu/aboutus/visit/priv/guest/'
p441
sg5
g6
(g10
S'W\x02a\xear\xe1Q?'
p442
tp443
Rp444
sg16
g17
((lp445
S'skip to main content'
p446
aS'guest borrower'
p447
aS'http://www.library.cornell.edu/aboutus/visit/priv/guest'
p448
aS'guest borrower eligibility and fees'
p449
atp450
Rp451
sg30
S'guest borrowers | cornell university library'
p452
sbsI33
(i__main__
Link
p453
(dp454
g3
S'http://www.library.cornell.edu/aboutus/visit/weill/'
p455
sg5
g6
(g10
S';O\x80\xae\r\xbdc?'
p456
tp457
Rp458
sg16
g17
((lp459
S'weill visitors'
p460
aS'skip to main content'
p461
aS'weill cornell medical college visitors'
p462
atp463
Rp464
sg30
S'visitors from weill cornell medical college | cornell university library'
p465
sbsI34
(i__main__
Link
p466
(dp467
g3
S'http://www.library.cornell.edu/accessiblesearch/'
p468
sg5
g6
(g10
S'\x8b\xd7\xb6,\r\xc5\xa4?'
p469
tp470
Rp471
sg16
g17
((lp472
S'skip to main content'
p473
aS'search'
p474
aS'text-only search box'
p475
aS'alternative library search page'
p476
atp477
Rp478
sg30
S'search | cornell university library'
p479
sbsI35
(i__main__
Link
p480
(dp481
g3
S'http://www.library.cornell.edu/Access_Services_Staff/'
p482
sg5
g6
(g10
S'i]8!i,@?'
p483
tp484
Rp485
sg16
g17
((lp486
S'skip to main content'
p487
atp488
Rp489
sg30
S'access services staff | cornell university library'
p490
sbsI36
(i__main__
Link
p491
(dp492
g3
S'http://www.library.cornell.edu/Adminops/'
p493
sg5
g6
(g10
S'\x19K\x1e\xbf\xc7\xba>?'
p494
tp495
Rp496
sg16
g17
((lp497
tp498
Rp499
sg30
S'cornell university library administrative operations'
p500
sbsI37
(i__main__
Link
p501
(dp502
g3
S'http://www.library.cornell.edu/Adminops/libhumres/diversitylinks.html'
p503
sg5
g6
(g10
S'Y\xfeQ\xb1\xad\xb8J?'
p504
tp505
Rp506
sg16
g17
((lp507
S'other links and resources'
p508
atp509
Rp510
sg30
S'cornell university library human resources'
p511
sbsI38
(i__main__
Link
p512
(dp513
g3
S'http://www.library.cornell.edu/Adminops/libhumres/employment.html'
p514
sg5
g6
(g10
S'\xf2\xdcd\xbe[\x93\x80?'
p515
tp516
Rp517
sg16
g17
((lp518
S'employment'
p519
atp520
Rp521
sg30
S'cornell university library human resources'
p522
sbsI39
(i__main__
Link
p523
(dp524
g3
S'http://www.library.cornell.edu/Adminops/libhumres/i9.html'
p525
sg5
g6
(g10
S'\x19K\x1e\xbf\xc7\xba>?'
p526
tp527
Rp528
sg16
g17
((lp529
tp530
Rp531
sg30
S'cornell university library human resources'
p532
sbsI40
(i__main__
Link
p533
(dp534
g3
S'http://www.library.cornell.edu/africana/'
p535
sg5
g6
(g10
S'\xf1\x1b\x84\x82\xfb\rl?'
p536
tp537
Rp538
sg16
g17
((lp539
S'africana'
p540
aS'john henrik clarke africana library'
p541
aS'find:'
p542
aS'africana library'
p543
aS'http://www.library.cornell.edu/africana'
p544
atp545
Rp546
sg30
S'john henrik clarke africana library -- cornell university'
p547
sbsI41
(i__main__
Link
p548
(dp549
g3
S'http://www.library.cornell.edu/africana/about/'
p550
sg5
g6
(g10
S'\xdb\xa4\x94\xf4\xe7\x7f\x7f?'
p551
tp552
Rp553
sg16
g17
((lp554
S'inside the library'
p555
aS'print this page'
p556
atp557
Rp558
sg30
S'inside--africana library, cornell university'
p559
sbsI42
(i__main__
Link
p560
(dp561
g3
S'http://www.library.cornell.edu/africana/about/cdpolicy.html'
p562
sg5
g6
(g10
S'\xc1#^\xe4^\xbcW?'
p563
tp564
Rp565
sg16
g17
((lp566
S'africana library collection development policy'
p567
aS'collections'
p568
aS'collection'
p569
aS'collection development policy'
p570
aS'print this page'
p571
atp572
Rp573
sg30
S'collection development policy-- africana library, cornell university'
p574
sbsI43
(i__main__
Link
p575
(dp576
g3
S'http://www.library.cornell.edu/africana/about/history.html'
p577
sg5
g6
(g10
S'(\x0e\x1b\xba\xf9oU?'
p578
tp579
Rp580
sg16
g17
((lp581
S'history of the john henrik clarke africana library'
p582
aS'history of africana library'
p583
aS'print this page'
p584
atp585
Rp586
sg30
S'history of jhc library-- africana library, cornell university'
p587
sbsI44
(i__main__
Link
p588
(dp589
g3
S'http://www.library.cornell.edu/africana/about/info.html'
p590
sg5
g6
(g10
S'\xdb\xa4\x94\xf4\xe7\x7f\x7f?'
p591
tp592
Rp593
sg16
g17
((lp594
S'print this page'
p595
aS'library staff'
p596
aS'contact'
p597
aS'information/contact/maps/directions'
p598
atp599
Rp600
sg30
S'information--africana library, cornell university'
p601
sbsI45
(i__main__
Link
p602
(dp603
g3
S'http://www.library.cornell.edu/africana/about/library.html'
p604
sg5
g6
(g10
S"\xd6'\x88E\xe3\x94R?"
p605
tp606
Rp607
sg16
g17
((lp608
S'the library in the life of black people'
p609
aS'print this page'
p610
atp611
Rp612
sg30
S'library in the life of black people-- africana library, cornell university'
p613
sbsI46
(i__main__
Link
p614
(dp615
g3
S'http://www.library.cornell.edu/africana/about/mission.html'
p616
sg5
g6
(g10
S'\xcdC\x03{\x1c$W?'
p617
tp618
Rp619
sg16
g17
((lp620
S'mission of the africana library'
p621
aS'mission'
p622
aS'africana library mission'
p623
aS'print this page'
p624
atp625
Rp626
sg30
S'mission-- africana library, cornell university'
p627
sbsI47
(i__main__
Link
p628
(dp629
g3
S'http://www.library.cornell.edu/africana/about/mudcloth.html'
p630
sg5
g6
(g10
S'\x9eS\x1f\x92\xb9\x88\x80?'
p631
tp632
Rp633
sg16
g17
((lp634
S'print this page'
p635
aS'history, origin and significance of mud cloth'
p636
aS'mud cloth'
p637
atp638
Rp639
sg30
S'history, origin and significance of mud cloth--africana library, cornell university'
p640
sbsI48
(i__main__
Link
p641
(dp642
g3
S'http://www.library.cornell.edu/africana/audio/'
p643
sg5
g6
(g10
S'.\xc0\x14\x1d\x9c\x95P?'
p644
tp645
Rp646
sg16
g17
((lp647
S'audio cassette collection'
p648
aS'print this page'
p649
atp650
Rp651
sg30
S'audio tape collection--africana library, cornell university'
p652
sbsI49
(i__main__
Link
p653
(dp654
g3
S'http://www.library.cornell.edu/africana/cdrom/'
p655
sg5
g6
(g10
S'.\xc0\x14\x1d\x9c\x95P?'
p656
tp657
Rp658
sg16
g17
((lp659
S'cd-rom collection'
p660
aS'print this page'
p661
atp662
Rp663
sg30
S'cd rom collection--africana library, cornell university'
p664
sbsI50
(i__main__
Link
p665
(dp666
g3
S'http://www.library.cornell.edu/africana/clarke/'
p667
sg5
g6
(g10
S'\xdb\xa4\x94\xf4\xe7\x7f\x7f?'
p668
tp669
Rp670
sg16
g17
((lp671
S'dr. john henrik clarke'
p672
aS'john henrikclarke'
p673
aS'john henrik clarke'
p674
aS'print this page'
p675
atp676
Rp677
sg30
S'john henrik clarke--africana library, cornell university'
p678
sbsI51
(i__main__
Link
p679
(dp680
g3
S'http://www.library.cornell.edu/africana/collection/'
p681
sg5
g6
(g10
S'\xdb\xa4\x94\xf4\xe7\x7f\x7f?'
p682
tp683
Rp684
sg16
g17
((lp685
S'collection'
p686
aS'print this page'
p687
atp688
Rp689
sg30
S'collections-- africana library, cornell university'
p690
sbsI52
(i__main__
Link
p691
(dp692
g3
S'http://www.library.cornell.edu/africana/digital/'
p693
sg5
g6
(g10
S'.\xc0\x14\x1d\x9c\x95P?'
p694
tp695
Rp696
sg16
g17
((lp697
S'digital historical texts'
p698
aS'print this page'
p699
atp700
Rp701
sg30
S'digital historical texts--africana library, cornell university'
p702
sbsI53
(i__main__
Link
p703
(dp704
g3
S'http://www.library.cornell.edu/africana/faculty/guides.html'
p705
sg5
g6
(g10
S'\x08\x17%}\x1bCS?'
p706
tp707
Rp708
sg16
g17
((lp709
S'class library guides'
p710
aS'africana class guides'
p711
aS'print this page'
p712
atp713
Rp714
sg30
S'guides prepared for specific classes--africana library, cornell university'
p715
sbsI54
(i__main__
Link
p716
(dp717
g3
S'http://www.library.cornell.edu/africana/forms/instruction.html'
p718
sg5
g6
(g10
S'X\xd1\xa3\xbb\xe82Q?'
p719
tp720
Rp721
sg16
g17
((lp722
S'africana'
p723
aS'africana library'
p724
aS'print this page'
p725
atp726
Rp727
sg30
S'library instruction request -- africana library, cornell university'
p728
sbsI55
(i__main__
Link
p729
(dp730
g3
S'http://www.library.cornell.edu/africana/friends/'
p731
sg5
g6
(g10
S'\xf6\xe0W\xe2i&R?'
p732
tp733
Rp734
sg16
g17
((lp735
S'friends of the library'
p736
aS'print this page'
p737
atp738
Rp739
sg30
S'friends of the library--africana library, cornell university'
p740
sbsI56
(i__main__
Link
p741
(dp742
g3
S'http://www.library.cornell.edu/africana/guides/'
p743
sg5
g6
(g10
S'\x96\xa82\x8e\xdd\xa8\x7f?'
p744
tp745
Rp746
sg16
g17
((lp747
S'africana guides'
p748
aS'subject guides'
p749
aS'print this page'
p750
atp751
Rp752
sg30
S'subject guides--africana library, cornell university'
p753
sbsI57
(i__main__
Link
p754
(dp755
g3
S'http://www.library.cornell.edu/africana/guides/afrcultural.html'
p756
sg5
g6
(g10
S'F\x7fag\x87\x1fP?'
p757
tp758
Rp759
sg16
g17
((lp760
S'african cultural survivals in america'
p761
aS'print this page'
p762
atp763
Rp764
sg30
S'african cultural survivals-- africana library, cornell university'
p765
sbsI58
(i__main__
Link
p766
(dp767
g3
S'http://www.library.cornell.edu/africana/guides/afrocentricity.html'
p768
sg5
g6
(g10
S'F\x7fag\x87\x1fP?'
p769
tp770
Rp771
sg16
g17
((lp772
S'afrocentricity'
p773
aS'print this page'
p774
atp775
Rp776
sg30
S'afrocentricity-- africana library, cornell university'
p777
sbsI59
(i__main__
Link
p778
(dp779
g3
S'http://www.library.cornell.edu/africana/guides/afrref.html'
p780
sg5
g6
(g10
S'F\x7fag\x87\x1fP?'
p781
tp782
Rp783
sg16
g17
((lp784
S'africa: general and specialized resources'
p785
aS'print this page'
p786
atp787
Rp788
sg30
S'africa: general and specialized reference books--africana library, cornell university'
p789
sbsI60
(i__main__
Link
p790
(dp791
g3
S'http://www.library.cornell.edu/africana/guides/ancient.html'
p792
sg5
g6
(g10
S'F\x7fag\x87\x1fP?'
p793
tp794
Rp795
sg16
g17
((lp796
S'print this page'
p797
atp798
Rp799
sg30
S'ancient african civilizations--africana library, cornell university'
p800
sbsI61
(i__main__
Link
p801
(dp802
g3
S'http://www.library.cornell.edu/africana/guides/indschools.html'
p803
sg5
g6
(g10
S'F\x7fag\x87\x1fP?'
p804
tp805
Rp806
sg16
g17
((lp807
S'black independent schools'
p808
aS'print this page'
p809
atp810
Rp811
sg30
S'black independent schools--africana library, cornell university'
p812
sbsI62
(i__main__
Link
p813
(dp814
g3
S'http://www.library.cornell.edu/africana/guides/king.html'
p815
sg5
g6
(g10
S'F\x7fag\x87\x1fP?'
p816
tp817
Rp818
sg16
g17
((lp819
S'print this page'
p820
atp821
Rp822
sg30
S'martin luther king, jr bibliography--africana library, cornell university'
p823
sbsI63
(i__main__
Link
p824
(dp825
g3
S'http://www.library.cornell.edu/africana/internet/africa.html'
p826
sg5
g6
(g10
S'\xc5Rg/p\xd3O?'
p827
tp828
Rp829
sg16
g17
((lp830
S'african studies internet resources'
p831
aS'print this page'
p832
atp833
Rp834
sg30
S'african studies internet resources--africana library, cornell university'
p835
sbsI64
(i__main__
Link
p836
(dp837
g3
S'http://www.library.cornell.edu/africana/internet/africamer.html'
p838
sg5
g6
(g10
S'F\x7fag\x87\x1fP?'
p839
tp840
Rp841
sg16
g17
((lp842
S'african american studies internet resources'
p843
aS'print this page'
p844
atp845
Rp846
sg30
S'african american studies internet resources--africana library, cornell university'
p847
sbsI65
(i__main__
Link
p848
(dp849
g3
S'http://www.library.cornell.edu/africana/library.html'
p850
sg5
g6
(g10
S'1\x80\x8b\xf4\x1e\xa7H?'
p851
tp852
Rp853
sg16
g17
((lp854
S'http://www.library.cornell.edu/africana/library.html'
p855
aS'print this page'
p856
atp857
Rp858
sg30
S'the new john henrik clarke africana library -- africana library, cornell university'
p859
sbsI66
(i__main__
Link
p860
(dp861
g3
S'http://www.library.cornell.edu/africana/microform/'
p862
sg5
g6
(g10
S'.\xc0\x14\x1d\x9c\x95P?'
p863
tp864
Rp865
sg16
g17
((lp866
S'microform collection'
p867
aS'print this page'
p868
atp869
Rp870
sg30
S'microform collection-- africana library, cornell university'
p871
sbsI67
(i__main__
Link
p872
(dp873
g3
S'http://www.library.cornell.edu/africana/newbooks/'
p874
sg5
g6
(g10
S'\xc7U\xbf"y\xbbF?'
p875
tp876
Rp877
sg16
g17
((lp878
S'new books'
p879
aS'print this page'
p880
atp881
Rp882
sg30
S'new book list -- africana library, cornell university'
p883
sbsI68
(i__main__
Link
p884
(dp885
g3
S'http://www.library.cornell.edu/africana/newbooks/may2009.html'
p886
sg5
g6
(g10
S'k\x8f\x1eJ$(C?'
p887
tp888
Rp889
sg16
g17
((lp890
S'videos/dvds'
p891
aS'books'
p892
aS'print this page'
p893
atp894
Rp895
sg30
S'new materials, may 2009 --.africana library, cornell university'
p896
sbsI69
(i__main__
Link
p897
(dp898
g3
S'http://www.library.cornell.edu/africana/news/'
p899
sg5
g6
(g10
S'\xdb\xbcf\xb7B^P?'
p900
tp901
Rp902
sg16
g17
((lp903
S'newspaper collection'
p904
aS'print this page'
p905
atp906
Rp907
sg30
S'newspaper collection-- africana library, cornell university'
p908
sbsI70
(i__main__
Link
p909
(dp910
g3
S'http://www.library.cornell.edu/africana/news/africannews.html'
p911
sg5
g6
(g10
S'\xb7\xd5KL\x8a\x03H?'
p912
tp913
Rp914
sg16
g17
((lp915
S'african newspapers on the internet'
p916
aS'print this page'
p917
atp918
Rp919
sg30
S'african newspapers on the internet--africana library, cornell university'
p920
sbsI71
(i__main__
Link
p921
(dp922
g3
S'http://www.library.cornell.edu/africana/per/'
p923
sg5
g6
(g10
S'\xd1K\xe0q\xf5\xdeP?'
p924
tp925
Rp926
sg16
g17
((lp927
S'back to top'
p928
aS'print this page'
p929
aS'periodical collection'
p930
aS'a'
p931
aS'c'
p932
aS'b'
p933
aS'e'
p934
aS'd'
p935
aS'g'
p936
aS'f'
p937
aS'i'
p938
aS'h'
p939
aS'j'
p940
aS'm'
p941
aS'l'
p942
aS'o'
p943
aS'n'
p944
aS'p'
p945
aS's'
p946
aS'r'
p947
aS'u'
p948
aS't'
p949
aS'w'
p950
aS'v'
p951
aS'z'
p952
atp953
Rp954
sg30
S'periodical collection--africana library, cornell university'
p955
sbsI72
(i__main__
Link
p956
(dp957
g3
S'http://www.library.cornell.edu/africana/thesis/'
p958
sg5
g6
(g10
S'\x86\xb1\x18x\xea\xf0S?'
p959
tp960
Rp961
sg16
g17
((lp962
S'africana theses'
p963
aS'theses introduction'
p964
aS'africana graduate theses'
p965
aS'print this page'
p966
atp967
Rp968
sg30
S'theses--africana library, cornell university'
p969
sbsI73
(i__main__
Link
p970
(dp971
g3
S'http://www.library.cornell.edu/africana/thesis/author.html'
p972
sg5
g6
(g10
S"\xa3'#\x195^F?"
p973
tp974
Rp975
sg16
g17
((lp976
S'print this page'
p977
ag932
ag931
aS'browse by author'
p978
ag933
ag934
ag935
ag936
ag937
ag939
aS'k'
p979
ag940
ag941
ag942
ag943
ag944
ag945
ag946
ag947
ag949
ag950
ag952
atp980
Rp981
sg30
S'theses, author--africana library, cornell university'
p982
sbsI74
(i__main__
Link
p983
(dp984
g3
S'http://www.library.cornell.edu/africana/thesis/date.html'
p985
sg5
g6
(g10
S"\xa3'#\x195^F?"
p986
tp987
Rp988
sg16
g17
((lp989
S'browse by degree date'
p990
aS'print this page'
p991
atp992
Rp993
sg30
S'theses, degree date--africana library, cornell university'
p994
sbsI75
(i__main__
Link
p995
(dp996
g3
S'http://www.library.cornell.edu/africana/thesis/topics.html'
p997
sg5
g6
(g10
S'\xa1\x9e\xaaA\xcc\xfdC?'
p998
tp999
Rp1000
sg16
g17
((lp1001
S'body image'
p1002
aS'race identity'
p1003
aS'arts/performance'
p1004
aS'slavery'
p1005
aS'print this page'
p1006
aS'african american experience'
p1007
aS'acting/drama'
p1008
aS'politics'
p1009
aS'education'
p1010
aS'technology'
p1011
aS'film'
p1012
aS'publishing'
p1013
aS'african experience'
p1014
aS'racism'
p1015
aS'sports'
p1016
aS'religion'
p1017
aS'browse by topic'
p1018
aS'music'
p1019
aS'biography'
p1020
aS'caribbean experience'
p1021
aS'health'
p1022
aS'women/gender studies'
p1023
aS'literature'
p1024
aS'cornell university'
p1025
aS'black nationalism'
p1026
aS'american indian'
p1027
aS'nomenclature'
p1028
aS'communication/media'
p1029
aS'military'
p1030
aS'ithaca, new york'
p1031
atp1032
Rp1033
sg30
S'theses, topic--africana library, cornell university'
p1034
sbsI76
(i__main__
Link
p1035
(dp1036
g3
S'http://www.library.cornell.edu/africana/visual/'
p1037
sg5
g6
(g10
S'.\xc0\x14\x1d\x9c\x95P?'
p1038
tp1039
Rp1040
sg16
g17
((lp1041
S'video/dvd collection'
p1042
aS'print this page'
p1043
atp1044
Rp1045
sg30
S'visual collection--africana library, cornell university'
p1046
sbsI77
(i__main__
Link
p1047
(dp1048
g3
S'http://www.library.cornell.edu/annex/'
p1049
sg5
g6
(g10
S'U\xfe\xd7.?Xi?'
p1050
tp1051
Rp1052
sg16
g17
((lp1053
S'skip to main content'
p1054
aS'library annex'
p1055
aS'http://www.library.cornell.edu/annex'
p1056
aS'annex'
p1057
atp1058
Rp1059
sg30
S'library annex | cornell university library'
p1060
sbsI78
(i__main__
Link
p1061
(dp1062
g3
S'http://www.library.cornell.edu/annex/annexrequest/'
p1063
sg5
g6
(g10
S'\xe9(\xe1\xda\x8efM?'
p1064
tp1065
Rp1066
sg16
g17
((lp1067
S'skip to main content'
p1068
aS'library annex request form'
p1069
aS'visitor request form'
p1070
aS'request form'
p1071
atp1072
Rp1073
sg30
S'annex requests | cornell university library'
p1074
sbsI79
(i__main__
Link
p1075
(dp1076
g3
S'http://www.library.cornell.edu/annex/AnnexTransferForm/'
p1077
sg5
g6
(g10
S'E\xefE\xc9\x90p@?'
p1078
tp1079
Rp1080
sg16
g17
((lp1081
S'skip to main content'
p1082
atp1083
Rp1084
sg30
S'library annex transfer form | cornell university library'
p1085
sbsI80
(i__main__
Link
p1086
(dp1087
g3
S'http://www.library.cornell.edu/annex/closing/'
p1088
sg5
g6
(g10
S'\x8f\x953M\xb4\xdeE?'
p1089
tp1090
Rp1091
sg16
g17
((lp1092
S'skip to main content'
p1093
aS'large collections shifts'
p1094
atp1095
Rp1096
sg30
S'large collections shifts | cornell university library'
p1097
sbsI81
(i__main__
Link
p1098
(dp1099
g3
S'http://www.library.cornell.edu/annex/facilities/'
p1100
sg5
g6
(g10
S'k\x93\xdd\xe8]\x12M?'
p1101
tp1102
Rp1103
sg16
g17
((lp1104
S'skip to main content'
p1105
aS'facilities'
p1106
aS'facilities overview'
p1107
atp1108
Rp1109
sg30
S'facilities | cornell university library'
p1110
sbsI82
(i__main__
Link
p1111
(dp1112
g3
S'http://www.library.cornell.edu/annex/news/'
p1113
sg5
g6
(g10
S'k\x93\xdd\xe8]\x12M?'
p1114
tp1115
Rp1116
sg16
g17
((lp1117
S'skip to main content'
p1118
aS'history'
p1119
atp1120
Rp1121
sg30
S'news and activities | cornell university library'
p1122
sbsI83
(i__main__
Link
p1123
(dp1124
g3
S'http://www.library.cornell.edu/annex/news/expansionproject/'
p1125
sg5
g6
(g10
S'+\x19\x05c!\x87A?'
p1126
tp1127
Rp1128
sg16
g17
((lp1129
S'skip to main content'
p1130
aS'library annex expansion project'
p1131
atp1132
Rp1133
sg30
S'library annex expansion project | cornell university library'
p1134
sbsI84
(i__main__
Link
p1135
(dp1136
g3
S'http://www.library.cornell.edu/annex/news/expansionproject/longoverview/'
p1137
sg5
g6
(g10
S'\xf2\x83\x04 4\nA?'
p1138
tp1139
Rp1140
sg16
g17
((lp1141
S'skip to main content'
p1142
aS'long version'
p1143
atp1144
Rp1145
sg30
S'expansion overview (long version) | cornell university library'
p1146
sbsI85
(i__main__
Link
p1147
(dp1148
g3
S'http://www.library.cornell.edu/annex/news/expansionproject/personnel/'
p1149
sg5
g6
(g10
S'\xbc[\x92\xc1\xe42A?'
p1150
tp1151
Rp1152
sg16
g17
((lp1153
S'skip to main content'
p1154
aS'project personnel'
p1155
atp1156
Rp1157
sg30
S'project personnel | cornell university library'
p1158
sbsI86
(i__main__
Link
p1159
(dp1160
g3
S'http://www.library.cornell.edu/annex/news/expansionproject/publicity/'
p1161
sg5
g6
(g10
S'\xbc[\x92\xc1\xe42A?'
p1162
tp1163
Rp1164
sg16
g17
((lp1165
S'skip to main content'
p1166
aS'publicity about the new libraryannex'
p1167
atp1168
Rp1169
sg30
S'publicity | cornell university library'
p1170
sbsI87
(i__main__
Link
p1171
(dp1172
g3
S'http://www.library.cornell.edu/annex/news/expansionproject/shortoverview/'
p1173
sg5
g6
(g10
S'\xf2\x83\x04 4\nA?'
p1174
tp1175
Rp1176
sg16
g17
((lp1177
S'skip to main content'
p1178
aS'short version'
p1179
atp1180
Rp1181
sg30
S'expansion overview (short version) | cornell university library'
p1182
sbsI88
(i__main__
Link
p1183
(dp1184
g3
S'http://www.library.cornell.edu/annex/news/movingproject/'
p1185
sg5
g6
(g10
S'o\x1c=\xa9\xe6\xa6A?'
p1186
tp1187
Rp1188
sg16
g17
((lp1189
S'selection strategies'
p1190
aS'project planning'
p1191
aS'physical move'
p1192
aS'skip to main content'
p1193
aS'background'
p1194
aS'project goals and scope'
p1195
aS'services'
p1196
aS'library annex moving project (1996)'
p1197
atp1198
Rp1199
sg30
S'annex moving project | cornell university library'
p1200
sbsI89
(i__main__
Link
p1201
(dp1202
g3
S'http://www.library.cornell.edu/annex/news/movingproject/projectteam/'
p1203
sg5
g6
(g10
S'\xc1Y:\x89\xaesB?'
p1204
tp1205
Rp1206
sg16
g17
((lp1207
S'project team contact information'
p1208
aS'skip to main content'
p1209
aS'the annex project planning committee'
p1210
aS'project contact information'
p1211
atp1212
Rp1213
sg30
S'project team contact information | cornell university library'
p1214
sbsI90
(i__main__
Link
p1215
(dp1216
g3
S'http://www.library.cornell.edu/annex/news/movingproject/qa/'
p1217
sg5
g6
(g10
S'!F\xc7^\xd3>A?'
p1218
tp1219
Rp1220
sg16
g17
((lp1221
S'skip to main content'
p1222
aS'questions & answers'
p1223
atp1224
Rp1225
sg30
S'q&a for the annex moving project | cornell university library'
p1226
sbsI91
(i__main__
Link
p1227
(dp1228
g3
S'http://www.library.cornell.edu/annex/policies/'
p1229
sg5
g6
(g10
S'\x81\xed\xb4\xc3q\xa1D?'
p1230
tp1231
Rp1232
sg16
g17
((lp1233
S'skip to main content'
p1234
aS'policies'
p1235
atp1236
Rp1237
sg30
S'policies: cataloged directly for the library annex | cornell university library'
p1238
sbsI92
(i__main__
Link
p1239
(dp1240
g3
S'http://www.library.cornell.edu/annex/procedures/'
p1241
sg5
g6
(g10
S'\x8f\x953M\xb4\xdeE?'
p1242
tp1243
Rp1244
sg16
g17
((lp1245
S'skip to main content'
p1246
aS'procedures'
p1247
atp1248
Rp1249
sg30
S'annex procedures | cornell university library'
p1250
sbsI93
(i__main__
Link
p1251
(dp1252
g3
S'http://www.library.cornell.edu/annex/services/'
p1253
sg5
g6
(g10
S"\xd3\xe2\xb2E\xa3'I?"
p1254
tp1255
Rp1256
sg16
g17
((lp1257
S'services'
p1258
aS'skip to main content'
p1259
atp1260
Rp1261
sg30
S'services | cornell university library'
p1262
sbsI94
(i__main__
Link
p1263
(dp1264
g3
S'http://www.library.cornell.edu/annex/services/hours/'
p1265
sg5
g6
(g10
S'\x97i\xdfT\xc5\x82D?'
p1266
tp1267
Rp1268
sg16
g17
((lp1269
S'hours and staff directory'
p1270
aS'skip to main content'
p1271
atp1272
Rp1273
sg30
S'hours and staff directory | cornell university library'
p1274
sbsI95
(i__main__
Link
p1275
(dp1276
g3
S'http://www.library.cornell.edu/annex/services/requests/'
p1277
sg5
g6
(g10
S'p\xb0\x89\x8c\xca\xfe_?'
p1278
tp1279
Rp1280
sg16
g17
((lp1281
S'library annex requests'
p1282
aS'annex requests'
p1283
aS'annex requests: click here!'
p1284
aS'skip to main content'
p1285
aS'how'
p1286
aS'request for book delivery on campus'
p1287
aS'library annex request page'
p1288
aS'instructions'
p1289
atp1290
Rp1291
sg30
S'library annex requests | cornell university library'
p1292
sbsI96
(i__main__
Link
p1293
(dp1294
g3
S'http://www.library.cornell.edu/annex/staff_faqs/'
p1295
sg5
g6
(g10
S'\xe1\x84\xdc\x9a\xa2pD?'
p1296
tp1297
Rp1298
sg16
g17
((lp1299
S'skip to main content'
p1300
aS'staff faqs'
p1301
atp1302
Rp1303
sg30
S'staff faqs | cornell university library'
p1304
sbsI97
(i__main__
Link
p1305
(dp1306
g3
S'http://www.library.cornell.edu/ask/'
p1307
sg5
g6
(g10
S'^\x9b^\x93:\x9b\x81?'
p1308
tp1309
Rp1310
sg16
g17
((lp1311
S'skip to main content'
p1312
aS'ask a librarian.'
p1313
aS'ask a librarian'
p1314
aS'ask a librarian!'
p1315
atp1316
Rp1317
sg30
S'ask a librarian | cornell university library'
p1318
sbsI98
(i__main__
Link
p1319
(dp1320
g3
S'http://www.library.cornell.edu/ask/chatissues/'
p1321
sg5
g6
(g10
S'\x17Kc\xe4\x9a\x82O?'
p1322
tp1323
Rp1324
sg16
g17
((lp1325
S'skip to main content'
p1326
aS'your chat privacy'
p1327
atp1328
Rp1329
sg30
S'chat privacy & confidentiality | cornell university library'
p1330
sbsI99
(i__main__
Link
p1331
(dp1332
g3
S'http://www.library.cornell.edu/ask/email/'
p1333
sg5
g6
(g10
S'\xa4\x8c\x1bh\xc7,i?'
p1334
tp1335
Rp1336
sg16
g17
((lp1337
S'skip to main content'
p1338
aS'e-mail'
p1339
aS'e-mail us'
p1340
aS'contact a librarian'
p1341
atp1342
Rp1343
sg30
S'ask a librarian - email | cornell university library'
p1344
sbsI100
(i__main__
Link
p1345
(dp1346
g3
S'http://www.library.cornell.edu/ask/phone/'
p1347
sg5
g6
(g10
S'\xa1\xfe\x07Cs\x14W?'
p1348
tp1349
Rp1350
sg16
g17
((lp1351
S'phone us'
p1352
aS'skip to main content'
p1353
aS'individual library'
p1354
atp1355
Rp1356
sg30
S'reference desk directory | cornell university library'
p1357
sbsI101
(i__main__
Link
p1358
(dp1359
g3
S'http://www.library.cornell.edu/citing/feedback/'
p1360
sg5
g6
(g10
S'\xc1\xa9\xe4\x9dh>J?'
p1361
tp1362
Rp1363
sg16
g17
((lp1364
S'skip to main content'
p1365
aS'contact us'
p1366
aS'send us your citation management question'
p1367
atp1368
Rp1369
sg30
S'citation management help | cornell university library'
p1370
sbsI102
(i__main__
Link
p1371
(dp1372
g3
S'http://www.library.cornell.edu/colldev/'
p1373
sg5
g6
(g10
S'\x19K\x1e\xbf\xc7\xba>?'
p1374
tp1375
Rp1376
sg16
g17
((lp1377
tp1378
Rp1379
sg30
S'index of /colldev'
p1380
sbsI103
(i__main__
Link
p1381
(dp1382
g3
S'http://www.library.cornell.edu/colldev/cdafrica.html'
p1383
sg5
g6
(g10
S'?\xda\xf5\x03w\xccA?'
p1384
tp1385
Rp1386
sg16
g17
((lp1387
S'cd policy for sub-saharan africa'
p1388
aS'african studies'
p1389
aS'cdafrica.html'
p1390
atp1391
Rp1392
sg30
S'collection development policy for sub-saharan africa'
p1393
sbsI104
(i__main__
Link
p1394
(dp1395
g3
S'http://www.library.cornell.edu/colldev/cdamericanhistory.html'
p1396
sg5
g6
(g10
S'f|FA\xc7\n@?'
p1397
tp1398
Rp1399
sg16
g17
((lp1400
S'cdamericanhistory.html'
p1401
aS'american history'
p1402
atp1403
Rp1404
sg30
S'american history collection policy'
p1405
sbsI105
(i__main__
Link
p1406
(dp1407
g3
S'http://www.library.cornell.edu/colldev/cdancienthistory.html'
p1408
sg5
g6
(g10
S'f|FA\xc7\n@?'
p1409
tp1410
Rp1411
sg16
g17
((lp1412
S'cdancienthistory.html'
p1413
aS'ancient history'
p1414
atp1415
Rp1416
sg30
S'ancient history collection policy'
p1417
sbsI106
(i__main__
Link
p1418
(dp1419
g3
S'http://www.library.cornell.edu/colldev/cdangloamerican.html'
p1420
sg5
g6
(g10
S'f|FA\xc7\n@?'
p1421
tp1422
Rp1423
sg16
g17
((lp1424
S'anglo-american literature & comparative literature'
p1425
aS'cdangloamerican.html'
p1426
atp1427
Rp1428
sg30
S'anglo-american literature and comparative literature'
p1429
sbsI107
(i__main__
Link
p1430
(dp1431
g3
S'http://www.library.cornell.edu/colldev/cdanthro.html'
p1432
sg5
g6
(g10
S'f|FA\xc7\n@?'
p1433
tp1434
Rp1435
sg16
g17
((lp1436
S'anthropology'
p1437
aS'cdanthro.html'
p1438
atp1439
Rp1440
sg30
S'anthropology collection policy'
p1441
sbsI108
(i__main__
Link
p1442
(dp1443
g3
S'http://www.library.cornell.edu/colldev/cdarchaeology.html'
p1444
sg5
g6
(g10
S'f|FA\xc7\n@?'
p1445
tp1446
Rp1447
sg16
g17
((lp1448
S'cdarchaeology.html'
p1449
aS'archaeology'
p1450
atp1451
Rp1452
sg30
S'archaeology collection policy'
p1453
sbsI109
(i__main__
Link
p1454
(dp1455
g3
S'http://www.library.cornell.edu/colldev/cdastronomy.html'
p1456
sg5
g6
(g10
S'\x91\xf9\x9b#9\xe6K?'
p1457
tp1458
Rp1459
sg16
g17
((lp1460
S'astronomy'
p1461
aS'cdastronomy.html'
p1462
atp1463
Rp1464
sg30
S'astronomy collection policy'
p1465
sbsI110
(i__main__
Link
p1466
(dp1467
g3
S'http://www.library.cornell.edu/colldev/cdbibliography.html'
p1468
sg5
g6
(g10
S'f|FA\xc7\n@?'
p1469
tp1470
Rp1471
sg16
g17
((lp1472
S'cdbibliography.html'
p1473
aS'bibliography and information science'
p1474
atp1475
Rp1476
sg30
S'bibliography & information science collection policy'
p1477
sbsI111
(i__main__
Link
p1478
(dp1479
g3
S'http://www.library.cornell.edu/colldev/cdbritishhistory.html'
p1480
sg5
g6
(g10
S'f|FA\xc7\n@?'
p1481
tp1482
Rp1483
sg16
g17
((lp1484
S'british and commonwealth history'
p1485
aS'cdbritishhistory.html'
p1486
atp1487
Rp1488
sg30
S'british history collection policy'
p1489
sbsI112
(i__main__
Link
p1490
(dp1491
g3
S'http://www.library.cornell.edu/colldev/cdchemistry.html'
p1492
sg5
g6
(g10
S'\x91\xf9\x9b#9\xe6K?'
p1493
tp1494
Rp1495
sg16
g17
((lp1496
S'(1)'
p1497
aS'cdchemistry.html'
p1498
aS'chemistry'
p1499
aS'return'
p1500
aS'2.2'
p1501
atp1502
Rp1503
sg30
S'chemistry collection policy'
p1504
sbsI113
(i__main__
Link
p1505
(dp1506
g3
S'http://www.library.cornell.edu/colldev/cdciser.html'
p1507
sg5
g6
(g10
S'\x91\xf9\x9b#9\xe6K?'
p1508
tp1509
Rp1510
sg16
g17
((lp1511
S'cdciser.html'
p1512
aS'ciser data archive'
p1513
atp1514
Rp1515
sg30
S'ciser data archive collection policy'
p1516
sbsI114
(i__main__
Link
p1517
(dp1518
g3
S'http://www.library.cornell.edu/colldev/cdclassics.html'
p1519
sg5
g6
(g10
S'f|FA\xc7\n@?'
p1520
tp1521
Rp1522
sg16
g17
((lp1523
S'cdclassics.html'
p1524
aS'classics'
p1525
atp1526
Rp1527
sg30
S'classics collection policy'
p1528
sbsI115
(i__main__
Link
p1529
(dp1530
g3
S'http://www.library.cornell.edu/colldev/cddescript1.html'
p1531
sg5
g6
(g10
S'f|FA\xc7\n@?'
p1532
tp1533
Rp1534
sg16
g17
((lp1535
S'about collection development at cornell university library'
p1536
aS'cddescript1.html'
p1537
atp1538
Rp1539
sg30
S'about collection development at cornell'
p1540
sbsI116
(i__main__
Link
p1541
(dp1542
g3
S'http://www.library.cornell.edu/colldev/cdechols.html'
p1543
sg5
g6
(g10
S'f|FA\xc7\n@?'
p1544
tp1545
Rp1546
sg16
g17
((lp1547
S'southeast asian studies'
p1548
aS'cdechols.html'
p1549
atp1550
Rp1551
sg30
S'echols collection development policy'
p1552
sbsI117
(i__main__
Link
p1553
(dp1554
g3
S'http://www.library.cornell.edu/colldev/cdeconomics.html'
p1555
sg5
g6
(g10
S'\x93\xf9\x9b#9\xe6K?'
p1556
tp1557
Rp1558
sg16
g17
((lp1559
S'economics, government & sociology'
p1560
aS'cdeconomics.html'
p1561
atp1562
Rp1563
sg30
S'economics, government and sociology collection policy'
p1564
sbsI118
(i__main__
Link
p1565
(dp1566
g3
S'http://www.library.cornell.edu/colldev/cdeurope.html'
p1567
sg5
g6
(g10
S'\x93\xf9\x9b#9\xe6K?'
p1568
tp1569
Rp1570
sg16
g17
((lp1571
S'western european social sciences'
p1572
aS'cdeurope.html'
p1573
atp1574
Rp1575
sg30
S'western european social sciences collection policy'
p1576
sbsI119
(i__main__
Link
p1577
(dp1578
g3
S'http://www.library.cornell.edu/colldev/cdfinearts.html'
p1579
sg5
g6
(g10
S'\xe1H\x81\t\xb8UR?'
p1580
tp1581
Rp1582
sg16
g17
((lp1583
S'landscape architecture'
p1584
aS'cdfinearts.html'
p1585
aS'art'
p1586
aS'fine arts'
p1587
atp1588
Rp1589
sg30
S'fine arts collection policy'
p1590
sbsI120
(i__main__
Link
p1591
(dp1592
g3
S'http://www.library.cornell.edu/colldev/cdfrench.html'
p1593
sg5
g6
(g10
S'\x91\xf9\x9b#9\xe6K?'
p1594
tp1595
Rp1596
sg16
g17
((lp1597
S'french & italian language & literature'
p1598
aS'cdfrench.html'
p1599
atp1600
Rp1601
sg30
S'french and italian language and literature collection policy'
p1602
sbsI121
(i__main__
Link
p1603
(dp1604
g3
S'http://www.library.cornell.edu/colldev/cdfrenchhistory.html'
p1605
sg5
g6
(g10
S'f|FA\xc7\n@?'
p1606
tp1607
Rp1608
sg16
g17
((lp1609
S'cdfrenchhistory.html'
p1610
aS'french history'
p1611
atp1612
Rp1613
sg30
S'french history collection policy'
p1614
sbsI122
(i__main__
Link
p1615
(dp1616
g3
S'http://www.library.cornell.edu/colldev/cdgeneralhistory.html'
p1617
sg5
g6
(g10
S'f|FA\xc7\n@?'
p1618
tp1619
Rp1620
sg16
g17
((lp1621
S'general history'
p1622
aS'cdgeneralhistory.html'
p1623
atp1624
Rp1625
sg30
S'general history collection policy'
p1626
sbsI123
(i__main__
Link
p1627
(dp1628
g3
S'http://www.library.cornell.edu/colldev/cdgeography.html'
p1629
sg5
g6
(g10
S'f|FA\xc7\n@?'
p1630
tp1631
Rp1632
sg16
g17
((lp1633
S'cdgeography.html'
p1634
aS'geography'
p1635
atp1636
Rp1637
sg30
S'geography collection policy'
p1638
sbsI124
(i__main__
Link
p1639
(dp1640
g3
S'http://www.library.cornell.edu/colldev/cdhistoryofscience.html'
p1641
sg5
g6
(g10
S'f|FA\xc7\n@?'
p1642
tp1643
Rp1644
sg16
g17
((lp1645
S'cdhistoryofscience.html'
p1646
aS'history of science'
p1647
atp1648
Rp1649
sg30
S'history of science collection policy'
p1650
sbsI125
(i__main__
Link
p1651
(dp1652
g3
S'http://www.library.cornell.edu/colldev/cdhome1.html'
p1653
sg5
g6
(g10
S'\x15\xc8\xedf\xc3\xc4I?'
p1654
tp1655
Rp1656
sg16
g17
((lp1657
S'return to top'
p1658
aS'cdhome1.html'
p1659
aS'collection policies by subjects'
p1660
atp1661
Rp1662
sg30
S'collection development policies'
p1663
sbsI126
(i__main__
Link
p1664
(dp1665
g3
S'http://www.library.cornell.edu/colldev/cdi&lr.html'
p1666
sg5
g6
(g10
S'f|FA\xc7\n@?'
p1667
tp1668
Rp1669
sg16
g17
((lp1670
S'industrial & labor relations'
p1671
aS'cdi&lr.html'
p1672
atp1673
Rp1674
sg30
S'industrial relations'
p1675
sbsI127
(i__main__
Link
p1676
(dp1677
g3
S'http://www.library.cornell.edu/colldev/cdiberianhistory.html'
p1678
sg5
g6
(g10
S'f|FA\xc7\n@?'
p1679
tp1680
Rp1681
sg16
g17
((lp1682
S'iberian history'
p1683
aS'cdiberianhistory.html'
p1684
atp1685
Rp1686
sg30
S'iberian history collection policy'
p1687
sbsI128
(i__main__
Link
p1688
(dp1689
g3
S'http://www.library.cornell.edu/colldev/cdiberianlanguage.html'
p1690
sg5
g6
(g10
S'\x97\xf9\x9b#9\xe6K?'
p1691
tp1692
Rp1693
sg16
g17
((lp1694
S'cdiberianlanguage.html'
p1695
aS'iberian language & literature'
p1696
atp1697
Rp1698
sg30
S'iberian language and literature collection policy'
p1699
sbsI129
(i__main__
Link
p1700
(dp1701
g3
S'http://www.library.cornell.edu/colldev/cdicelandic.html'
p1702
sg5
g6
(g10
S'f|FA\xc7\n@?'
p1703
tp1704
Rp1705
sg16
g17
((lp1706
S'cdicelandic.html'
p1707
aS'fiske icelandic collection'
p1708
atp1709
Rp1710
sg30
S'icelandic collection policy'
p1711
sbsI130
(i__main__
Link
p1712
(dp1713
g3
S'http://www.library.cornell.edu/colldev/cditalianhistory.html'
p1714
sg5
g6
(g10
S'f|FA\xc7\n@?'
p1715
tp1716
Rp1717
sg16
g17
((lp1718
S'italian history'
p1719
aS'cditalianhistory.html'
p1720
atp1721
Rp1722
sg30
S'italian history collection policy'
p1723
sbsI131
(i__main__
Link
p1724
(dp1725
g3
S'http://www.library.cornell.edu/colldev/cdjapan.html'
p1726
sg5
g6
(g10
S'f|FA\xc7\n@?'
p1727
tp1728
Rp1729
sg16
g17
((lp1730
S'japanese studies'
p1731
aS'cdjapan.html'
p1732
atp1733
Rp1734
sg30
S'collection development policy for japan studies'
p1735
sbsI132
(i__main__
Link
p1736
(dp1737
g3
S'http://www.library.cornell.edu/colldev/cdjewishstudies.html'
p1738
sg5
g6
(g10
S'f|FA\xc7\n@?'
p1739
tp1740
Rp1741
sg16
g17
((lp1742
S'cdjewishstudies.html'
p1743
aS'jewish studies'
p1744
atp1745
Rp1746
sg30
S'jewish studies collection policy'
p1747
sbsI133
(i__main__
Link
p1748
(dp1749
g3
S'http://www.library.cornell.edu/colldev/cdjgsm.html'
p1750
sg5
g6
(g10
S'\x99\xf9\x9b#9\xe6K?'
p1751
tp1752
Rp1753
sg16
g17
((lp1754
S'cdjgsm.html'
p1755
aS'johnson school of management'
p1756
atp1757
Rp1758
sg30
S'management library collection policy'
p1759
sbsI134
(i__main__
Link
p1760
(dp1761
g3
S'http://www.library.cornell.edu/colldev/cdlatinamerica.html'
p1762
sg5
g6
(g10
S'f|FA\xc7\n@?'
p1763
tp1764
Rp1765
sg16
g17
((lp1766
S'latin american studies'
p1767
aS'cdlatinamerica.html'
p1768
atp1769
Rp1770
sg30
S'collection development policy for latin american studies'
p1771
sbsI135
(i__main__
Link
p1772
(dp1773
g3
S'http://www.library.cornell.edu/colldev/cdlinguistics.html'
p1774
sg5
g6
(g10
S'f|FA\xc7\n@?'
p1775
tp1776
Rp1777
sg16
g17
((lp1778
S'cdlinguistics.html'
p1779
aS'linguisitcs'
p1780
atp1781
Rp1782
sg30
S'linguistics collection policy'
p1783
sbsI136
(i__main__
Link
p1784
(dp1785
g3
S'http://www.library.cornell.edu/colldev/cdmaps.html'
p1786
sg5
g6
(g10
S'\x9b\xf9\x9b#9\xe6K?'
p1787
tp1788
Rp1789
sg16
g17
((lp1790
S'cdmaps.html'
p1791
aS'cartographic materials'
p1792
atp1793
Rp1794
sg30
S'cartographic collection policy'
p1795
sbsI137
(i__main__
Link
p1796
(dp1797
g3
S'http://www.library.cornell.edu/colldev/cdmath.html'
p1798
sg5
g6
(g10
S'\x99\xf9\x9b#9\xe6K?'
p1799
tp1800
Rp1801
sg16
g17
((lp1802
S'mathematics'
p1803
aS'cdmath.html'
p1804
atp1805
Rp1806
sg30
S'mathematics collection policy'
p1807
sbsI138
(i__main__
Link
p1808
(dp1809
g3
S'http://www.library.cornell.edu/colldev/cdmedieval.html'
p1810
sg5
g6
(g10
S'f|FA\xc7\n@?'
p1811
tp1812
Rp1813
sg16
g17
((lp1814
S'medieval studies'
p1815
aS'cdmedieval.html'
p1816
atp1817
Rp1818
sg30
S'medieval studies collection policy'
p1819
sbsI139
(i__main__
Link
p1820
(dp1821
g3
S'http://www.library.cornell.edu/colldev/cdmusic.html'
p1822
sg5
g6
(g10
S'\xc3\x13\xbb\xd7\xc6\x15E?'
p1823
tp1824
Rp1825
sg16
g17
((lp1826
S'music and dance'
p1827
aS'music'
p1828
aS'cdmusic.html'
p1829
atp1830
Rp1831
sg30
S'music and dance collection policy'
p1832
sbsI140
(i__main__
Link
p1833
(dp1834
g3
S'http://www.library.cornell.edu/colldev/cdnorthamericannewspapers.html'
p1835
sg5
g6
(g10
S'f|FA\xc7\n@?'
p1836
tp1837
Rp1838
sg16
g17
((lp1839
S'cdnorthamericannewspapers.html'
p1840
aS'north american newspapers'
p1841
atp1842
Rp1843
sg30
S'north american newspapers collection policy'
p1844
sbsI141
(i__main__
Link
p1845
(dp1846
g3
S'http://www.library.cornell.edu/colldev/cdnortheuropeanhistory.html'
p1847
sg5
g6
(g10
S'f|FA\xc7\n@?'
p1848
tp1849
Rp1850
sg16
g17
((lp1851
S'cdnortheuropeanhistory.html'
p1852
aS'north european history'
p1853
atp1854
Rp1855
sg30
S'north european history collection policy'
p1856
sbsI142
(i__main__
Link
p1857
(dp1858
g3
S'http://www.library.cornell.edu/colldev/cdnortheuropeanlit.html'
p1859
sg5
g6
(g10
S'f|FA\xc7\n@?'
p1860
tp1861
Rp1862
sg16
g17
((lp1863
S'north european language & literature'
p1864
aS'cdnortheuropeanlit.html'
p1865
atp1866
Rp1867
sg30
S'north european literature and language collection policy'
p1868
sbsI143
(i__main__
Link
p1869
(dp1870
g3
S'http://www.library.cornell.edu/colldev/cdnumismatics.html'
p1871
sg5
g6
(g10
S'f|FA\xc7\n@?'
p1872
tp1873
Rp1874
sg16
g17
((lp1875
S'cdnumismatics.html'
p1876
aS'numismatics'
p1877
atp1878
Rp1879
sg30
S'numismatics collection policy'
p1880
sbsI144
(i__main__
Link
p1881
(dp1882
g3
S'http://www.library.cornell.edu/colldev/cdphilosophy.html'
p1883
sg5
g6
(g10
S'f|FA\xc7\n@?'
p1884
tp1885
Rp1886
sg16
g17
((lp1887
S'philosophy'
p1888
aS'cdphilosophy.html'
p1889
atp1890
Rp1891
sg30
S'philosophy collection policy'
p1892
sbsI145
(i__main__
Link
p1893
(dp1894
g3
S'http://www.library.cornell.edu/colldev/cdphysics.html'
p1895
sg5
g6
(g10
S'\x9f\xf9\x9b#9\xe6K?'
p1896
tp1897
Rp1898
sg16
g17
((lp1899
S'physics'
p1900
aS'cdphysics.html'
p1901
atp1902
Rp1903
sg30
S'astronomy collection policy'
p1904
sbsI146
(i__main__
Link
p1905
(dp1906
g3
S'http://www.library.cornell.edu/colldev/cdpsychology.html'
p1907
sg5
g6
(g10
S'\x9f\xf9\x9b#9\xe6K?'
p1908
tp1909
Rp1910
sg16
g17
((lp1911
S'cdpsychology.html'
p1912
aS'psychology'
p1913
atp1914
Rp1915
sg30
S'psychology collection policy'
p1916
sbsI147
(i__main__
Link
p1917
(dp1918
g3
S'http://www.library.cornell.edu/colldev/cdreligion.html'
p1919
sg5
g6
(g10
S'\x9d\xf9\x9b#9\xe6K?'
p1920
tp1921
Rp1922
sg16
g17
((lp1923
S'religion'
p1924
aS'cdreligion.html'
p1925
atp1926
Rp1927
sg30
S'religion collection policy'
p1928
sbsI148
(i__main__
Link
p1929
(dp1930
g3
S'http://www.library.cornell.edu/colldev/cdslavic.html'
p1931
sg5
g6
(g10
S'f|FA\xc7\n@?'
p1932
tp1933
Rp1934
sg16
g17
((lp1935
S'cdslavic.html'
p1936
aS'slavic & east european studies'
p1937
atp1938
Rp1939
sg30
S'collection development policy for slavic and east european studies'
p1940
sbsI149
(i__main__
Link
p1941
(dp1942
g3
S'http://www.library.cornell.edu/colldev/cdsouthasia.html'
p1943
sg5
g6
(g10
S'f|FA\xc7\n@?'
p1944
tp1945
Rp1946
sg16
g17
((lp1947
S'south asian studies'
p1948
aS'cdsouthasia.html'
p1949
atp1950
Rp1951
sg30
S'collection development policy for south asia'
p1952
sbsI150
(i__main__
Link
p1953
(dp1954
g3
S'http://www.library.cornell.edu/colldev/cdterms1.html'
p1955
sg5
g6
(g10
S'\x87\xbb\xf8\x82\xd5\xe0S?'
p1956
tp1957
Rp1958
sg16
g17
((lp1959
S'cdterms1.html'
p1960
aS'terms and symbols used to describe collection levels:'
p1961
aS'key to codes & abbreviations'
p1962
aS'terms and abbreviations'
p1963
aS'definitions of collecting levels'
p1964
aS'language codes'
p1965
atp1966
Rp1967
sg30
S'terms and abbreviations used in the collection development policies'
p1968
sbsI151
(i__main__
Link
p1969
(dp1970
g3
S'http://www.library.cornell.edu/colldev/cdwomensstudies.html'
p1971
sg5
g6
(g10
S'\x9f\xf9\x9b#9\xe6K?'
p1972
tp1973
Rp1974
sg16
g17
((lp1975
S'womens studies'
p1976
aS'cdwomensstudies.html'
p1977
atp1978
Rp1979
sg30
S"women's studies collection policy"
p1980
sbsI152
(i__main__
Link
p1981
(dp1982
g3
S'http://www.library.cornell.edu/colldev/giftpolicy.html'
p1983
sg5
g6
(g10
S'f|FA\xc7\n@?'
p1984
tp1985
Rp1986
sg16
g17
((lp1987
S'giftpolicy.html'
p1988
aS'gifts of books and materials'
p1989
atp1990
Rp1991
sg30
S'cornell university library gift policy'
p1992
sbsI153
(i__main__
Link
p1993
(dp1994
g3
S'http://www.library.cornell.edu/colldev/mideast/cd.htm'
p1995
sg5
g6
(g10
S'sF\x85>6tK?'
p1996
tp1997
Rp1998
sg16
g17
((lp1999
S'acronyms used'
p2000
aS'middle east & islamic studies'
p2001
aS'back to table of contents'
p2002
aS'current collecting policy by major lc class number and evaluated using rlg conspectus'
p2003
aS'acronyms & symbols'
p2004
aS'evaluation of coverage by country'
p2005
aS'table of contents'
p2006
aS'purpose'
p2007
aS'current collecting policy for middle east/islam by major lc class number and evaluated using rlg conspectus'
p2008
aS'[acronyms & symbols]'
p2009
aS'holdings description'
p2010
aS'evaluation of coverage by country (literature about the countries and from the countries listed)'
p2011
aS'collecting levels'
p2012
atp2013
Rp2014
sg30
S'cd-pol'
p2015
sbsI154
(i__main__
Link
p2016
(dp2017
g3
S'http://www.library.cornell.edu/compact/index.html'
p2018
sg5
g6
(g10
S'\x90\xa1\xc6\xd8s%k?'
p2019
tp2020
Rp2021
sg16
g17
((lp2022
S'skip to main content'
p2023
aS'overview'
p2024
aS'cornell open access publication (coap) fund'
p2025
atp2026
Rp2027
sg30
S'cornell open access publishing fund'
p2028
sbsI155
(i__main__
Link
p2029
(dp2030
g3
S'http://www.library.cornell.edu/course/'
p2031
sg5
g6
(g10
S'\x8b\xd7\xb6,\r\xc5\xa4?'
p2032
tp2033
Rp2034
sg16
g17
((lp2035
S'skip to main content'
p2036
aS'course reserves'
p2037
aS'course help'
p2038
atp2039
Rp2040
sg30
S'course help | cornell university library'
p2041
sbsI156
(i__main__
Link
p2042
(dp2043
g3
S'http://www.library.cornell.edu/culhelp/'
p2044
sg5
g6
(g10
S'\x8b\xd7\xb6,\r\xc5\xa4?'
p2045
tp2046
Rp2047
sg16
g17
((lp2048
S'skip to main content'
p2049
aS'help'
p2050
atp2051
Rp2052
sg30
S'help | cornell university library'
p2053
sbsI157
(i__main__
Link
p2054
(dp2055
g3
S'http://www.library.cornell.edu/culhelp/conn/'
p2056
sg5
g6
(g10
S'j\xc5H\xb5\xce\xeac?'
p2057
tp2058
Rp2059
sg16
g17
((lp2060
S'skip to main content'
p2061
atp2062
Rp2063
sg30
S'trouble connecting | cornell university library'
p2064
sbsI158
(i__main__
Link
p2065
(dp2066
g3
S'http://www.library.cornell.edu/culhelp/conn/sna/'
p2067
sg5
g6
(g10
S'E\xefE\xc9\x90p@?'
p2068
tp2069
Rp2070
sg16
g17
((lp2071
S'skip to main content'
p2072
atp2073
Rp2074
sg30
S'still not able to connect? | cornell university library'
p2075
sbsI159
(i__main__
Link
p2076
(dp2077
g3
S'http://www.library.cornell.edu/culhelp/faq/'
p2078
sg5
g6
(g10
S'\x13F\xd9VM\xb1c?'
p2079
tp2080
Rp2081
sg16
g17
((lp2082
S'skip to main content'
p2083
atp2084
Rp2085
sg30
S'frequently asked questions | cornell university library'
p2086
sbsI160
(i__main__
Link
p2087
(dp2088
g3
S'http://www.library.cornell.edu/dlit/'
p2089
sg5
g6
(g10
S'\xee=\x99t\xa6\x9bi?'
p2090
tp2091
Rp2092
sg16
g17
((lp2093
S'skip to content'
p2094
atp2095
Rp2096
sg30
S'dlit - division of library information technologies | cornell university library'
p2097
sbsI161
(i__main__
Link
p2098
(dp2099
g3
S'http://www.library.cornell.edu/DSS/'
p2100
sg5
g6
(g10
S'E\xefE\xc9\x90p@?'
p2101
tp2102
Rp2103
sg16
g17
((lp2104
S'skip to main content'
p2105
atp2106
Rp2107
sg30
S'digital scholarship & preservation services | cornell university library'
p2108
sbsI162
(i__main__
Link
p2109
(dp2110
g3
S'http://www.library.cornell.edu/FallBreaks2011/'
p2111
sg5
g6
(g10
S's>kL\x13:@?'
p2112
tp2113
Rp2114
sg16
g17
((lp2115
S'adelson'
p2116
aS'hotel'
p2117
aS'music'
p2118
aS'veterinary'
p2119
aS'geneva'
p2120
aS'annex'
p2121
aS'olin'
p2122
aS'top'
p2123
aS'entomology'
p2124
aS'skip to main content'
p2125
aS'mathematics'
p2126
aS'management'
p2127
aS'ilr'
p2128
aS'fine arts'
p2129
aS'africana'
p2130
aS'law'
p2131
aS'kroch-asia'
p2132
aS'uris'
p2133
aS'mann'
p2134
aS'kroch-rare & mss'
p2135
atp2136
Rp2137
sg30
S'fall break: saturday, october 8 - tuesday, october 11, 2011 thanksgiving recess: wednesday, november 23 - sunday, november 27, 2011 | cornell university library'
p2138
sbsI163
(i__main__
Link
p2139
(dp2140
g3
S'http://www.library.cornell.edu/FallHours2011/'
p2141
sg5
g6
(g10
S's>kL\x13:@?'
p2142
tp2143
Rp2144
sg16
g17
((lp2145
S'adelson'
p2146
aS'hotel'
p2147
aS'music'
p2148
aS'veterinary'
p2149
aS'geneva'
p2150
aS'annex'
p2151
aS'olin'
p2152
aS'top'
p2153
aS'entomology'
p2154
aS'skip to main content'
p2155
aS'mathematics'
p2156
aS'management'
p2157
aS'ilr'
p2158
aS'fine arts'
p2159
aS'africana'
p2160
aS'law'
p2161
aS'kroch-asia'
p2162
aS'uris'
p2163
aS'mann'
p2164
aS'kroch-rare & mss'
p2165
atp2166
Rp2167
sg30
S'fall semester: wednesday, august 24, 2011 - friday, december 16, 2011 | cornell university library'
p2168
sbsI164
(i__main__
Link
p2169
(dp2170
g3
S'http://www.library.cornell.edu/finearts/'
p2171
sg5
g6
(g10
S',\xa8nQ\x0e\xaep?'
p2172
tp2173
Rp2174
sg16
g17
((lp2175
S'home'
p2176
aS'http://www.library.cornell.edu/finearts'
p2177
aS'fine arts library'
p2178
aS'fine arts'
p2179
atp2180
Rp2181
sg30
S'cornell university fine arts library'
p2182
sbsI165
(i__main__
Link
p2183
(dp2184
g3
S'http://www.library.cornell.edu/finearts/apply/'
p2185
sg5
g6
(g10
S'\x156L\x80\xbcv[?'
p2186
tp2187
Rp2188
sg16
g17
((lp2189
S'apply for a student job'
p2190
atp2191
Rp2192
sg30
S'student employment at the fine arts library'
p2193
sbsI166
(i__main__
Link
p2194
(dp2195
g3
S'http://www.library.cornell.edu/finearts/circulation/policy.html'
p2196
sg5
g6
(g10
S'\x156L\x80\xbcv[?'
p2197
tp2198
Rp2199
sg16
g17
((lp2200
S'circulation'
p2201
atp2202
Rp2203
sg30
S'circulation policy'
p2204
sbsI167
(i__main__
Link
p2205
(dp2206
g3
S'http://www.library.cornell.edu/finearts/circulation/reserve.html'
p2207
sg5
g6
(g10
S'\x156L\x80\xbcv[?'
p2208
tp2209
Rp2210
sg16
g17
((lp2211
S'reserve'
p2212
atp2213
Rp2214
sg30
S'course reserves'
p2215
sbsI168
(i__main__
Link
p2216
(dp2217
g3
S'http://www.library.cornell.edu/finearts/collections.html'
p2218
sg5
g6
(g10
S'\x156L\x80\xbcv[?'
p2219
tp2220
Rp2221
sg16
g17
((lp2222
S'collections'
p2223
atp2224
Rp2225
sg30
S'collections'
p2226
sbsI169
(i__main__
Link
p2227
(dp2228
g3
S'http://www.library.cornell.edu/finearts/contacts.html'
p2229
sg5
g6
(g10
S'\x156L\x80\xbcv[?'
p2230
tp2231
Rp2232
sg16
g17
((lp2233
S"don't hesitate to call"
p2234
aS'contacts'
p2235
atp2236
Rp2237
sg30
S'contacts'
p2238
sbsI170
(i__main__
Link
p2239
(dp2240
g3
S'http://www.library.cornell.edu/finearts/equipment/'
p2241
sg5
g6
(g10
S'\x156L\x80\xbcv[?'
p2242
tp2243
Rp2244
sg16
g17
((lp2245
S'equipment cage'
p2246
atp2247
Rp2248
sg30
S'aap equipment cage at the fine arts library'
p2249
sbsI171
(i__main__
Link
p2250
(dp2251
g3
S'http://www.library.cornell.edu/finearts/internetresources.html'
p2252
sg5
g6
(g10
S'\xe1\x01a\x8c\xc9\xd1]?'
p2253
tp2254
Rp2255
sg16
g17
((lp2256
S'art history'
p2257
aS'historic preservation'
p2258
aS'photography'
p2259
aS'city and regional planning'
p2260
aS'museums'
p2261
aS'internet resources'
p2262
aS'architecture'
p2263
aS'fine arts library internet resources'
p2264
aS'image resources'
p2265
atp2266
Rp2267
sg30
S'internet resources'
p2268
sbsI172
(i__main__
Link
p2269
(dp2270
g3
S'http://www.library.cornell.edu/finearts/laptop.html'
p2271
sg5
g6
(g10
S'\x156L\x80\xbcv[?'
p2272
tp2273
Rp2274
sg16
g17
((lp2275
S'laptop loan program'
p2276
atp2277
Rp2278
sg30
S'laptop loan program'
p2279
sbsI173
(i__main__
Link
p2280
(dp2281
g3
S'http://www.library.cornell.edu/finearts/main_faq.html'
p2282
sg5
g6
(g10
S'\x156L\x80\xbcv[?'
p2283
tp2284
Rp2285
sg16
g17
((lp2286
S'i am looking for a famous picture of a ship, a dog, etc. for my research or a graphic design project that i am working on. where can i find this picture?'
p2287
aS'i know that my friend graduated from cornell and i am trying to locate his thesis. i have looked under his name but i could not find it.'
p2288
aS'i recalled a book. how long do i have to wait for it?'
p2289
aS'i want to design a garden. where do i find books that can provide me with information about doing this?'
p2290
aS'can i return material from other libraries at the fine arts library?'
p2291
aS"i found an article in the database, but don't know how to find the journal."
p2292
aS'back to list of questions'
p2293
aS"the catalog says a book is not charged, but i can't find it in the stacks. where is it?"
p2294
aS'can i make copies without a venda card?'
p2295
aS'i looked up a book in the catalog, but it had no call number. why?'
p2296
aS'do you have a lost & found?'
p2297
aS'i have never been in this library before, can i get a tour?'
p2298
aS'when can i check a reserve book out overnight and when is it due?'
p2299
aS'can i renew my reserve book?'
p2300
aS'i would like this library to order a title that is not available here. how do i submit a request for an order?'
p2301
aS'what can be requested through borrow direct?'
p2302
aS"i have received a fine or bill that i don't think is fair. can i appeal it?"
p2303
aS'faq'
p2304
aS'can i charge out unbound periodicals, or periodicals in gray boards?'
p2305
aS'i would like submit a reserve list. how do i go about doing that in this library? can i reactivate the reserve list i used in a course i taught several years ago?'
p2306
aS'i am looking for an article in a specific periodical, how can i locate this?'
p2307
aS'where can i find the architectural plans for specific buildings on campus and / or how can i learn the history behind of some of the buildings?'
p2308
aS"i found an article in a database but i can't read it online. how do i find the journal?"
p2309
aS'what is borrow direct and how does it work?'
p2310
aS'can i check out oversize or flat material?'
p2311
aS'how do i search for just the video and dvd collection in the fine arts library?'
p2312
aS'how do i obtain a net-print account?'
p2313
aS'what class is this title on reserve for?'
p2314
aS'i am looking for a work study student assistant job in the fine arts library. how do i apply for a job, here in this library?'
p2315
aS'what is the difference between interlibrary loan and borrow direct?'
p2316
aS"i need to process the images i made from the scanner, but the program on the computer doesn't seem to be able to do what i want it to."
p2317
aS'do you have a place i can advertise my event?'
p2318
aS'i have a reserve title that i have to read. where do i find this book?'
p2319
aS"i am not able to access my professor's blackboard website? what should i do?"
p2320
atp2321
Rp2322
sg30
S'frequently asked questions'
p2323
sbsI174
(i__main__
Link
p2324
(dp2325
g3
S'http://www.library.cornell.edu/finearts/purchaserequest.html'
p2326
sg5
g6
(g10
S'\x156L\x80\xbcv[?'
p2327
tp2328
Rp2329
sg16
g17
((lp2330
S'request book purchase'
p2331
atp2332
Rp2333
sg30
S'request book purchase'
p2334
sbsI175
(i__main__
Link
p2335
(dp2336
g3
S'http://www.library.cornell.edu/finearts/reference.html'
p2337
sg5
g6
(g10
S'H\x9fW\x85\xaa\xa9`?'
p2338
tp2339
Rp2340
sg16
g17
((lp2341
S'fine arts library'
p2342
aS'reference'
p2343
atp2344
Rp2345
sg30
S'reference'
p2346
sbsI176
(i__main__
Link
p2347
(dp2348
g3
S'http://www.library.cornell.edu/finearts/stacklocationguides.html'
p2349
sg5
g6
(g10
S'\x156L\x80\xbcv[?'
p2350
tp2351
Rp2352
sg16
g17
((lp2353
S'stack location guides'
p2354
atp2355
Rp2356
sg30
S'stack location guides'
p2357
sbsI177
(i__main__
Link
p2358
(dp2359
g3
S'http://www.library.cornell.edu/getstarted/'
p2360
sg5
g6
(g10
S'\xb5I\x7frZ<F?'
p2361
tp2362
Rp2363
sg16
g17
((lp2364
S'get started'
p2365
aS'skip to main content'
p2366
atp2367
Rp2368
sg30
S'get started | cornell university library'
p2369
sbsI178
(i__main__
Link
p2370
(dp2371
g3
S'http://www.library.cornell.edu/hours/'
p2372
sg5
g6
(g10
S'\xc5k\xcc\xae_\xf3\xa4?'
p2373
tp2374
Rp2375
sg16
g17
((lp2376
S'map'
p2377
aS'hours and maps'
p2378
aS'reading room hours'
p2379
aS'skip to main content'
p2380
aS'maps'
p2381
aS'other library hours'
p2382
aS'visit us'
p2383
aS'library hours'
p2384
atp2385
Rp2386
sg30
S'hours and maps | cornell university library'
p2387
sbsI179
(i__main__
Link
p2388
(dp2389
g3
S'http://www.library.cornell.edu/ill/contactillstaff.html'
p2390
sg5
g6
(g10
S'\xbd\tM\xc5\xd9\xb7C?'
p2391
tp2392
Rp2393
sg16
g17
((lp2394
S'contact'
p2395
atp2396
Rp2397
sg30
S'olin interlibrary staff and office hours'
p2398
sbsI180
(i__main__
Link
p2399
(dp2400
g3
S'http://www.library.cornell.edu/ill/documentdeliveryexemptions.html'
p2401
sg5
g6
(g10
S'\xf9\xe8\x9b\x83\x80_A?'
p2402
tp2403
Rp2404
sg16
g17
((lp2405
S'list of offices and locations'
p2406
atp2407
Rp2408
sg30
S''
p2409
sbsI181
(i__main__
Link
p2410
(dp2411
g3
S'http://www.library.cornell.edu/ill/olinborrowing.html'
p2412
sg5
g6
(g10
S'C\xf2\xe9so%Q?'
p2413
tp2414
Rp2415
sg16
g17
((lp2416
S'back to top'
p2417
aS'returning material'
p2418
aS'contacts'
p2419
aS'eligibility'
p2420
aS'notification'
p2421
aS'renewal'
p2422
aS'assistance from reference departments'
p2423
aS'requesting for someone else \xe2\x80\x93 proxy'
p2424
aS'overdues'
p2425
aS'choosing an ill processing unit'
p2426
aS'photocopy requests'
p2427
aS'policies'
p2428
aS'dissertations'
p2429
aS'renewals'
p2430
aS'interlibrary loan or borrow direct?'
p2431
aS'lost or damaged material'
p2432
atp2433
Rp2434
sg30
S'olin borrowing'
p2435
sbsI182
(i__main__
Link
p2436
(dp2437
g3
S'http://www.library.cornell.edu/ill/OlinILLmain.html'
p2438
sg5
g6
(g10
S'\x19K\x1e\xbf\xc7\xba>?'
p2439
tp2440
Rp2441
sg16
g17
((lp2442
tp2443
Rp2444
sg30
S'olin interlibrary services'
p2445
sbsI183
(i__main__
Link
p2446
(dp2447
g3
S'http://www.library.cornell.edu/index/'
p2448
sg5
g6
(g10
S'\x8b\xd7\xb6,\r\xc5\xa4?'
p2449
tp2450
Rp2451
sg16
g17
((lp2452
S'skip to main content'
p2453
aS'home'
p2454
atp2455
Rp2456
sg30
S'home | cornell university library'
p2457
sbsI184
(i__main__
Link
p2458
(dp2459
g3
S'http://www.library.cornell.edu/map/'
p2460
sg5
g6
(g10
S'\xbb\xa6\xe5\xaf#\xaeD?'
p2461
tp2462
Rp2463
sg16
g17
((lp2464
S'skip to main content'
p2465
aS'map of the libraries'
p2466
atp2467
Rp2468
sg30
S'libraries on the ithaca campus | cornell university library'
p2469
sbsI185
(i__main__
Link
p2470
(dp2471
g3
S'http://www.library.cornell.edu/myacct/'
p2472
sg5
g6
(g10
S'\xa7\xfc:\x81Mc\xa5?'
p2473
tp2474
Rp2475
sg16
g17
((lp2476
S'skip to main content'
p2477
aS'my account'
p2478
aS'http://www.library.cornell.edu/myacct'
p2479
atp2480
Rp2481
sg30
S'my account | cornell university library'
p2482
sbsI186
(i__main__
Link
p2483
(dp2484
g3
S'http://www.library.cornell.edu/okuaccess/annex/index.html'
p2485
sg5
g6
(g10
S'qk`\x17\x03\x13@?'
p2486
tp2487
Rp2488
sg16
g17
((lp2489
S'library annex'
p2490
atp2491
Rp2492
sg30
S'cornell library annex'
p2493
sbsI187
(i__main__
Link
p2494
(dp2495
g3
S'http://www.library.cornell.edu/practices/'
p2496
sg5
g6
(g10
S'\xd1p\x81\x80\x82\xedE?'
p2497
tp2498
Rp2499
sg16
g17
((lp2500
S'skip to main content'
p2501
aS'library practices on the collection, use, disclosure, maintenance and protection of personally-identifiable information'
p2502
atp2503
Rp2504
sg30
S'library practices on the collection, use, disclosure, maintenance and protection of personally-identifiable information | cornell university library'
p2505
sbsI188
(i__main__
Link
p2506
(dp2507
g3
S'http://www.library.cornell.edu/preservation/'
p2508
sg5
g6
(g10
S'A*V\xab\xbc\x9bU?'
p2509
tp2510
Rp2511
sg16
g17
((lp2512
S'department of preservation and collection maintenance'
p2513
aS'preservation and collection maintenance'
p2514
aS'cornell university library'
p2515
aS'department of preservation and conservation'
p2516
atp2517
Rp2518
sg30
S'cornell university department of preservation and conservation home page'
p2519
sbsI189
(i__main__
Link
p2520
(dp2521
g3
S'http://www.library.cornell.edu/preservation/com/comfin.html'
p2522
sg5
g6
(g10
S'\x0fZ\xc9\xc7\xa2\x8fL?'
p2523
tp2524
Rp2525
sg16
g17
((lp2526
S'6'
p2527
aS'www.library.cornell.edu/preservation/com/comfin.html'
p2528
aS'30'
p2529
aS'return to text'
p2530
aS'process'
p2531
aS'film first approach'
p2532
aS'the hybrid approach'
p2533
aS'process finding no. 1'
p2534
aS'process finding no. 2'
p2535
aS'cost'
p2536
aS'process finding no. 3'
p2537
aS'recommendation'
p2538
aS'film size'
p2539
aS'findings and recommendations: cost'
p2540
aS'32'
p2541
aS'quality'
p2542
aS'24'
p2543
ag220
aS'26'
p2544
aS'27'
p2545
aS'20'
p2546
aS'21'
p2547
aS'22'
p2548
aS'density'
p2549
aS'introduction'
p2550
aS'23'
p2551
aS'28'
p2552
aS'29'
p2553
aS'18'
p2554
aS'quality finding no. 4'
p2555
ag225
ag226
aS'5'
p2556
aS'quality finding no. 1'
p2557
aS'quality finding no. 2'
p2558
aS'quality finding no. 3'
p2559
aS'scan first approach'
p2560
aS'8'
p2561
aS'findings and recommendations: process'
p2562
aS'acknowledgments'
p2563
ag227
aS"cornell's digital to microfilm conversion project"
p2564
aS'yale\xe2\x80\x99s project open book'
p2565
aS'bibliographic characteristics'
p2566
aS'7'
p2567
aS'25'
p2568
aS'33'
p2569
aS'findings and recommendations: quality'
p2570
aS'cost finding no. 2'
p2571
aS'cost finding no. 1'
p2572
aS'34'
p2573
aS'9'
p2574
aS'11'
p2575
aS'10'
p2576
aS'13'
p2577
aS'12'
p2578
aS'15'
p2579
aS'14'
p2580
aS'17'
p2581
aS'the cornell and yale studies'
p2582
aS'table 3'
p2583
aS'table 2'
p2584
aS'table 1'
p2585
aS'16'
p2586
aS'table 7'
p2587
aS'table 6'
p2588
aS'table 5'
p2589
aS'table 4'
p2590
aS'19'
p2591
aS'background on the cornell digital to microfilm project'
p2592
aS'31'
p2593
aS'summary findings of the cornell project'
p2594
aS'resolution'
p2595
aS'reduction ratio'
p2596
atp2597
Rp2598
sg30
S'cornell university department of preservation and conservation'
p2599
sbsI190
(i__main__
Link
p2600
(dp2601
g3
S'http://www.library.cornell.edu/preservation/newdesign.css'
p2602
sg5
g6
(g10
S'\x19K\x1e\xbf\xc7\xba>?'
p2603
tp2604
Rp2605
sg16
g17
((lp2606
tp2607
Rp2608
sg30
g2409
sbsI191
(i__main__
Link
p2609
(dp2610
g3
S'http://www.library.cornell.edu/preservation/tutorial/index.html'
p2611
sg5
g6
(g10
S'\xd9\xa3\xea\x84\n\x9cK?'
p2612
tp2613
Rp2614
sg16
g17
((lp2615
tp2616
Rp2617
sg30
S'moving theory into practice: digital imaging tutorial, cornell university library'
p2618
sbsI192
(i__main__
Link
p2619
(dp2620
g3
S'http://www.library.cornell.edu/privacy/'
p2621
sg5
g6
(g10
S'dR\xc5#\xc3\x8ae?'
p2622
tp2623
Rp2624
sg16
g17
((lp2625
S'privacy and confidentiality in the cornell university library'
p2626
aS'skip to main content'
p2627
aS'privacy'
p2628
atp2629
Rp2630
sg30
S'privacy and confidentiality in the cornell university library | cornell university library'
p2631
sbsI193
(i__main__
Link
p2632
(dp2633
g3
S'http://www.library.cornell.edu/recommend/'
p2634
sg5
g6
(g10
S'G\xefE\xc9\x90p@?'
p2635
tp2636
Rp2637
sg16
g17
((lp2638
S'skip to main content'
p2639
atp2640
Rp2641
sg30
S'make your own recommendation | cornell university library'
p2642
sbsI194
(i__main__
Link
p2643
(dp2644
g3
S'http://www.library.cornell.edu/Reps/DOCS/homepage.htm'
p2645
sg5
g6
(g10
S'\xc3=\x99t\xa6\x9bi?'
p2646
tp2647
Rp2648
sg16
g17
((lp2649
tp2650
Rp2651
sg30
S'urban planning, 1794-1918:'
p2652
sbsI195
(i__main__
Link
p2653
(dp2654
g3
S'http://www.library.cornell.edu/request/'
p2655
sg5
g6
(g10
S'|h\xca\x18\xee\xdc\xa4?'
p2656
tp2657
Rp2658
sg16
g17
((lp2659
S'skip to main content'
p2660
aS'requests'
p2661
aS'request items'
p2662
atp2663
Rp2664
sg30
S'requests | cornell university library'
p2665
sbsI196
(i__main__
Link
p2666
(dp2667
g3
S'http://www.library.cornell.edu/request/classform/'
p2668
sg5
g6
(g10
S'F\xc8\x83\xa4\xc8\t|?'
p2669
tp2670
Rp2671
sg16
g17
((lp2672
S'skip to main content'
p2673
aS'library instruction requests'
p2674
aS'class instruction for faculty and instructors'
p2675
aS'filling out this form'
p2676
atp2677
Rp2678
sg30
S'class instruction | cornell university library'
p2679
sbsI197
(i__main__
Link
p2680
(dp2681
g3
S'http://www.library.cornell.edu/request/reqm/'
p2682
sg5
g6
(g10
S'\xb1\x18\x92\xa6\xf4\xcdJ?'
p2683
tp2684
Rp2685
sg16
g17
((lp2686
S'skip to main content'
p2687
aS'request'
p2688
atp2689
Rp2690
sg30
S'request materials | cornell university library'
p2691
sbsI198
(i__main__
Link
p2692
(dp2693
g3
S'http://www.library.cornell.edu/request/techprob/'
p2694
sg5
g6
(g10
S'G\xefE\xc9\x90p@?'
p2695
tp2696
Rp2697
sg16
g17
((lp2698
S'skip to main content'
p2699
atp2700
Rp2701
sg30
S'still not able to connect? | cornell university library'
p2702
sbsI199
(i__main__
Link
p2703
(dp2704
g3
S'http://www.library.cornell.edu/resrch/'
p2705
sg5
g6
(g10
S'\x8b\xd7\xb6,\r\xc5\xa4?'
p2706
tp2707
Rp2708
sg16
g17
((lp2709
S'skip to main content'
p2710
aS'research help'
p2711
aS'research help pages'
p2712
atp2713
Rp2714
sg30
S'research help | cornell university library'
p2715
sbsI200
(i__main__
Link
p2716
(dp2717
g3
S'http://www.library.cornell.edu/resrch/citing/'
p2718
sg5
g6
(g10
S'\r\x03\xad\xf8\x9enB?'
p2719
tp2720
Rp2721
sg16
g17
((lp2722
S'skip to main content'
p2723
aS'citing sources'
p2724
atp2725
Rp2726
sg30
S'citing sources | cornell university library'
p2727
sbsI201
(i__main__
Link
p2728
(dp2729
g3
S'http://www.library.cornell.edu/resrch/citing/bibtut/'
p2730
sg5
g6
(g10
S'oLE;\xa5\xabQ?'
p2731
tp2732
Rp2733
sg16
g17
((lp2734
S'skip to main content'
p2735
aS'annotated bibliography how-to'
p2736
aS'annotated bibliography tutorial'
p2737
atp2738
Rp2739
sg30
S'annotated bibliography tutorial | cornell university library'
p2740
sbsI202
(i__main__
Link
p2741
(dp2742
g3
S'http://www.library.cornell.edu/resrch/citmanage/'
p2743
sg5
g6
(g10
S'Q\xd7snNAx?'
p2744
tp2745
Rp2746
sg16
g17
((lp2747
S'skip to main content'
p2748
aS'endnote'
p2749
aS'citation management software:'
p2750
aS'citation management'
p2751
aS'refworks'
p2752
atp2753
Rp2754
sg30
S'citation management | cornell university library'
p2755
sbsI203
(i__main__
Link
p2756
(dp2757
g3
S'http://www.library.cornell.edu/resrch/citmanage/apa/'
p2758
sg5
g6
(g10
S'\x0c\xf2\xea\xa3.\x82S?'
p2759
tp2760
Rp2761
sg16
g17
((lp2762
S'skip to main content'
p2763
aS'apa'
p2764
aS'apa citation style'
p2765
atp2766
Rp2767
sg30
S'apa citation style | cornell university library'
p2768
sbsI204
(i__main__
Link
p2769
(dp2770
g3
S'http://www.library.cornell.edu/resrch/citmanage/code/'
p2771
sg5
g6
(g10
S'K&\xf7"l\xe7I?'
p2772
tp2773
Rp2774
sg16
g17
((lp2775
S'skip to main content'
p2776
aS'code of academic integrity'
p2777
atp2778
Rp2779
sg30
S'code of academic integrity | cornell university library'
p2780
sbsI205
(i__main__
Link
p2781
(dp2782
g3
S'http://www.library.cornell.edu/resrch/citmanage/mla/'
p2783
sg5
g6
(g10
S'h\r\xae\xc7\xf6RR?'
p2784
tp2785
Rp2786
sg16
g17
((lp2787
S'mla'
p2788
aS'mla citation style'
p2789
aS'other documentation styles'
p2790
aS'citing materials from online sources'
p2791
aS'works cited list'
p2792
aS'skip to main content'
p2793
aS'citing sources in the text'
p2794
atp2795
Rp2796
sg30
S'mla citation style | cornell university library'
p2797
sbsI206
(i__main__
Link
p2798
(dp2799
g3
S'http://www.library.cornell.edu/resrch/current/'
p2800
sg5
g6
(g10
S'\x1f@\x18\xa83\xf0w?'
p2801
tp2802
Rp2803
sg16
g17
((lp2804
S'rss feeds'
p2805
aS'table of contents alerts'
p2806
aS'blogs'
p2807
aS'other alerts'
p2808
aS'facebook & twitter'
p2809
aS'skip to main content'
p2810
aS'current awareness'
p2811
aS'citation alerts'
p2812
aS'new books at cornell'
p2813
aS'social bookmarking'
p2814
atp2815
Rp2816
sg30
S'current awareness | cornell university library'
p2817
sbsI207
(i__main__
Link
p2818
(dp2819
g3
S'http://www.library.cornell.edu/resrch/current/toc/'
p2820
sg5
g6
(g10
S'\x81\xa7A\x82\x98\xbcL?'
p2821
tp2822
Rp2823
sg16
g17
((lp2824
S'skip to main content'
p2825
aS'table of contents (toc) alerts'
p2826
atp2827
Rp2828
sg30
S'table of contents (toc) alerts | cornell university library'
p2829
sbsI208
(i__main__
Link
p2830
(dp2831
g3
S'http://www.library.cornell.edu/resrch/intro/'
p2832
sg5
g6
(g10
S'\xea}\xfa\xa6\xc2\xebw?'
p2833
tp2834
Rp2835
sg16
g17
((lp2836
S'citing sources'
p2837
aS'skip to main content'
p2838
aS'introduction to research'
p2839
aS'choosing and developing a research topic'
p2840
aS'finding books, articles and other materials'
p2841
aS'evaluating resources'
p2842
atp2843
Rp2844
sg30
S'introduction to research | cornell university library'
p2845
sbsI209
(i__main__
Link
p2846
(dp2847
g3
S'http://www.library.cornell.edu/resrch/intro/articles/'
p2848
sg5
g6
(g10
S'g\xed\xc50\xb8\x7fH?'
p2849
tp2850
Rp2851
sg16
g17
((lp2852
S'skip to main content'
p2853
aS'articles, databases, images'
p2854
atp2855
Rp2856
sg30
S'finding articles, databases and images | cornell university library'
p2857
sbsI210
(i__main__
Link
p2858
(dp2859
g3
S'http://www.library.cornell.edu/resrch/intro/dissert/'
p2860
sg5
g6
(g10
S'q\x1eO\xf4\xbe\x9aH?'
p2861
tp2862
Rp2863
sg16
g17
((lp2864
S'skip to main content'
p2865
aS'dissertations'
p2866
atp2867
Rp2868
sg30
S'finding dissertations | cornell university library'
p2869
sbsI211
(i__main__
Link
p2870
(dp2871
g3
S'http://www.library.cornell.edu/resrch/intro/finding/'
p2872
sg5
g6
(g10
S'\xb40\xa5\xee\xa2\xe9M?'
p2873
tp2874
Rp2875
sg16
g17
((lp2876
S'skip to main content'
p2877
aS'finding books'
p2878
aS'books, music, video and audio materials'
p2879
atp2880
Rp2881
sg30
S'finding books, music, video and audio materials | cornell university library'
p2882
sbsI212
(i__main__
Link
p2883
(dp2884
g3
S'http://www.library.cornell.edu/resrch/libguides/'
p2885
sg5
g6
(g10
S'\xfd\xe3C\x82aI\x86?'
p2886
tp2887
Rp2888
sg16
g17
((lp2889
S'skip to main content'
p2890
aS'library guides'
p2891
aS'lib guides,'
p2892
atp2893
Rp2894
sg30
S'library guides | cornell university library'
p2895
sbsI213
(i__main__
Link
p2896
(dp2897
g3
S'http://www.library.cornell.edu/resrch/libguides/1/'
p2898
sg5
g6
(g10
S'\xa1u\xf0\x14k\xafF?'
p2899
tp2900
Rp2901
sg16
g17
((lp2902
S'skip to main content'
p2903
aS'agriculture'
p2904
atp2905
Rp2906
sg30
S'library guides | cornell university library'
p2907
sbsI214
(i__main__
Link
p2908
(dp2909
g3
S'http://www.library.cornell.edu/resrch/libguides/12/'
p2910
sg5
g6
(g10
S'\xa1u\xf0\x14k\xafF?'
p2911
tp2912
Rp2913
sg16
g17
((lp2914
S'skip to main content'
p2915
aS'economics'
p2916
atp2917
Rp2918
sg30
S'library guides | cornell university library'
p2919
sbsI215
(i__main__
Link
p2920
(dp2921
g3
S'http://www.library.cornell.edu/resrch/libguides/13/'
p2922
sg5
g6
(g10
S'\xa1u\xf0\x14k\xafF?'
p2923
tp2924
Rp2925
sg16
g17
((lp2926
S'skip to main content'
p2927
aS'education'
p2928
atp2929
Rp2930
sg30
S'library guides | cornell university library'
p2931
sbsI216
(i__main__
Link
p2932
(dp2933
g3
S'http://www.library.cornell.edu/resrch/libguides/14/'
p2934
sg5
g6
(g10
S'\xa1u\xf0\x14k\xafF?'
p2935
tp2936
Rp2937
sg16
g17
((lp2938
S'skip to main content'
p2939
aS'engineering'
p2940
atp2941
Rp2942
sg30
S'library guides | cornell university library'
p2943
sbsI217
(i__main__
Link
p2944
(dp2945
g3
S'http://www.library.cornell.edu/resrch/libguides/15/'
p2946
sg5
g6
(g10
S'\xa1u\xf0\x14k\xafF?'
p2947
tp2948
Rp2949
sg16
g17
((lp2950
S'skip to main content'
p2951
aS'environment and natural resources'
p2952
atp2953
Rp2954
sg30
S'library guides | cornell university library'
p2955
sbsI218
(i__main__
Link
p2956
(dp2957
g3
S'http://www.library.cornell.edu/resrch/libguides/16/'
p2958
sg5
g6
(g10
S'\xa1u\xf0\x14k\xafF?'
p2959
tp2960
Rp2961
sg16
g17
((lp2962
S'skip to main content'
p2963
aS'food and nutrition'
p2964
atp2965
Rp2966
sg30
S'library guides | cornell university library'
p2967
sbsI219
(i__main__
Link
p2968
(dp2969
g3
S'http://www.library.cornell.edu/resrch/libguides/17/'
p2970
sg5
g6
(g10
S'\xa1u\xf0\x14k\xafF?'
p2971
tp2972
Rp2973
sg16
g17
((lp2974
S'general interest and reference'
p2975
aS'skip to main content'
p2976
atp2977
Rp2978
sg30
S'library guides | cornell university library'
p2979
sbsI220
(i__main__
Link
p2980
(dp2981
g3
S'http://www.library.cornell.edu/resrch/libguides/18/'
p2982
sg5
g6
(g10
S'\xa1u\xf0\x14k\xafF?'
p2983
tp2984
Rp2985
sg16
g17
((lp2986
S'skip to main content'
p2987
aS'geography, maps and spatial data'
p2988
atp2989
Rp2990
sg30
S'library guides | cornell university library'
p2991
sbsI221
(i__main__
Link
p2992
(dp2993
g3
S'http://www.library.cornell.edu/resrch/libguides/2/'
p2994
sg5
g6
(g10
S'\xa1u\xf0\x14k\xafF?'
p2995
tp2996
Rp2997
sg16
g17
((lp2998
S'anthropology'
p2999
aS'skip to main content'
p3000
atp3001
Rp3002
sg30
S'library guides | cornell university library'
p3003
sbsI222
(i__main__
Link
p3004
(dp3005
g3
S'http://www.library.cornell.edu/resrch/libguides/20/'
p3006
sg5
g6
(g10
S'\xa1u\xf0\x14k\xafF?'
p3007
tp3008
Rp3009
sg16
g17
((lp3010
S'skip to main content'
p3011
aS'government, law and public policy'
p3012
atp3013
Rp3014
sg30
S'library guides | cornell university library'
p3015
sbsI223
(i__main__
Link
p3016
(dp3017
g3
S'http://www.library.cornell.edu/resrch/libguides/21/'
p3018
sg5
g6
(g10
S'\xa1u\xf0\x14k\xafF?'
p3019
tp3020
Rp3021
sg16
g17
((lp3022
S'skip to main content'
p3023
aS'history'
p3024
atp3025
Rp3026
sg30
S'library guides | cornell university library'
p3027
sbsI224
(i__main__
Link
p3028
(dp3029
g3
S'http://www.library.cornell.edu/resrch/libguides/22/'
p3030
sg5
g6
(g10
S'\xa1u\xf0\x14k\xafF?'
p3031
tp3032
Rp3033
sg16
g17
((lp3034
S'skip to main content'
p3035
aS'human resources, labor & employment'
p3036
atp3037
Rp3038
sg30
S'library guides | cornell university library'
p3039
sbsI225
(i__main__
Link
p3040
(dp3041
g3
S'http://www.library.cornell.edu/resrch/libguides/23/'
p3042
sg5
g6
(g10
S'\xa1u\xf0\x14k\xafF?'
p3043
tp3044
Rp3045
sg16
g17
((lp3046
S'skip to main content'
p3047
aS'library and information science'
p3048
atp3049
Rp3050
sg30
S'library guides | cornell university library'
p3051
sbsI226
(i__main__
Link
p3052
(dp3053
g3
S'http://www.library.cornell.edu/resrch/libguides/24/'
p3054
sg5
g6
(g10
S'\xa1u\xf0\x14k\xafF?'
p3055
tp3056
Rp3057
sg16
g17
((lp3058
S'skip to main content'
p3059
aS'linguistics, language and literature'
p3060
atp3061
Rp3062
sg30
S'library guides | cornell university library'
p3063
sbsI227
(i__main__
Link
p3064
(dp3065
g3
S'http://www.library.cornell.edu/resrch/libguides/25/'
p3066
sg5
g6
(g10
S'\xa1u\xf0\x14k\xafF?'
p3067
tp3068
Rp3069
sg16
g17
((lp3070
S'skip to main content'
p3071
aS'math and statistics'
p3072
atp3073
Rp3074
sg30
S'library guides | cornell university library'
p3075
sbsI228
(i__main__
Link
p3076
(dp3077
g3
S'http://www.library.cornell.edu/resrch/libguides/26/'
p3078
sg5
g6
(g10
S'\xa1u\xf0\x14k\xafF?'
p3079
tp3080
Rp3081
sg16
g17
((lp3082
S'skip to main content'
p3083
aS'medicine - human and veterinary'
p3084
atp3085
Rp3086
sg30
S'library guides | cornell university library'
p3087
sbsI229
(i__main__
Link
p3088
(dp3089
g3
S'http://www.library.cornell.edu/resrch/libguides/27/'
p3090
sg5
g6
(g10
S'\xa1u\xf0\x14k\xafF?'
p3091
tp3092
Rp3093
sg16
g17
((lp3094
S'skip to main content'
p3095
aS'music'
p3096
atp3097
Rp3098
sg30
S'library guides | cornell university library'
p3099
sbsI230
(i__main__
Link
p3100
(dp3101
g3
S'http://www.library.cornell.edu/resrch/libguides/28/'
p3102
sg5
g6
(g10
S'\xa1u\xf0\x14k\xafF?'
p3103
tp3104
Rp3105
sg16
g17
((lp3106
S'skip to main content'
p3107
aS'philosophy and religion'
p3108
atp3109
Rp3110
sg30
S'library guides | cornell university library'
p3111
sbsI231
(i__main__
Link
p3112
(dp3113
g3
S'http://www.library.cornell.edu/resrch/libguides/29/'
p3114
sg5
g6
(g10
S'\xa1u\xf0\x14k\xafF?'
p3115
tp3116
Rp3117
sg16
g17
((lp3118
S'skip to main content'
p3119
aS'physics and astronomy'
p3120
atp3121
Rp3122
sg30
S'library guides | cornell university library'
p3123
sbsI232
(i__main__
Link
p3124
(dp3125
g3
S'http://www.library.cornell.edu/resrch/libguides/3/'
p3126
sg5
g6
(g10
S'\xa1u\xf0\x14k\xafF?'
p3127
tp3128
Rp3129
sg16
g17
((lp3130
S'skip to main content'
p3131
aS'art and architecture'
p3132
atp3133
Rp3134
sg30
S'library guides | cornell university library'
p3135
sbsI233
(i__main__
Link
p3136
(dp3137
g3
S'http://www.library.cornell.edu/resrch/libguides/30/'
p3138
sg5
g6
(g10
S'\xa1u\xf0\x14k\xafF?'
p3139
tp3140
Rp3141
sg16
g17
((lp3142
S'skip to main content'
p3143
aS'population and demography'
p3144
atp3145
Rp3146
sg30
S'library guides | cornell university library'
p3147
sbsI234
(i__main__
Link
p3148
(dp3149
g3
S'http://www.library.cornell.edu/resrch/libguides/31/'
p3150
sg5
g6
(g10
S'\xa1u\xf0\x14k\xafF?'
p3151
tp3152
Rp3153
sg16
g17
((lp3154
S'skip to main content'
p3155
aS'psychology'
p3156
atp3157
Rp3158
sg30
S'library guides | cornell university library'
p3159
sbsI235
(i__main__
Link
p3160
(dp3161
g3
S'http://www.library.cornell.edu/resrch/libguides/32/'
p3162
sg5
g6
(g10
S'\xa1u\xf0\x14k\xafF?'
p3163
tp3164
Rp3165
sg16
g17
((lp3166
S'skip to main content'
p3167
aS'research and writing'
p3168
atp3169
Rp3170
sg30
S'library guides | cornell university library'
p3171
sbsI236
(i__main__
Link
p3172
(dp3173
g3
S'http://www.library.cornell.edu/resrch/libguides/33/'
p3174
sg5
g6
(g10
S'\xa1u\xf0\x14k\xafF?'
p3175
tp3176
Rp3177
sg16
g17
((lp3178
S'skip to main content'
p3179
aS'science and technology'
p3180
atp3181
Rp3182
sg30
S'library guides | cornell university library'
p3183
sbsI237
(i__main__
Link
p3184
(dp3185
g3
S'http://www.library.cornell.edu/resrch/libguides/34/'
p3186
sg5
g6
(g10
S'\xa1u\xf0\x14k\xafF?'
p3187
tp3188
Rp3189
sg16
g17
((lp3190
S'skip to main content'
p3191
aS'social sciences'
p3192
atp3193
Rp3194
sg30
S'library guides | cornell university library'
p3195
sbsI238
(i__main__
Link
p3196
(dp3197
g3
S'http://www.library.cornell.edu/resrch/libguides/35/'
p3198
sg5
g6
(g10
S'\xa1u\xf0\x14k\xafF?'
p3199
tp3200
Rp3201
sg16
g17
((lp3202
S'skip to main content'
p3203
aS'sociology and rural development'
p3204
atp3205
Rp3206
sg30
S'library guides | cornell university library'
p3207
sbsI239
(i__main__
Link
p3208
(dp3209
g3
S'http://www.library.cornell.edu/resrch/libguides/37/'
p3210
sg5
g6
(g10
S'\xa1u\xf0\x14k\xafF?'
p3211
tp3212
Rp3213
sg16
g17
((lp3214
S'skip to main content'
p3215
aS'area studies'
p3216
atp3217
Rp3218
sg30
S'library guides | cornell university library'
p3219
sbsI240
(i__main__
Link
p3220
(dp3221
g3
S'http://www.library.cornell.edu/resrch/libguides/38/'
p3222
sg5
g6
(g10
S'\xa1u\xf0\x14k\xafF?'
p3223
tp3224
Rp3225
sg16
g17
((lp3226
S'biographies'
p3227
aS'skip to main content'
p3228
atp3229
Rp3230
sg30
S'library guides | cornell university library'
p3231
sbsI241
(i__main__
Link
p3232
(dp3233
g3
S'http://www.library.cornell.edu/resrch/libguides/39/'
p3234
sg5
g6
(g10
S'\xa1u\xf0\x14k\xafF?'
p3235
tp3236
Rp3237
sg16
g17
((lp3238
S'skip to main content'
p3239
aS'newspapers, magazines and current events'
p3240
atp3241
Rp3242
sg30
S'library guides | cornell university library'
p3243
sbsI242
(i__main__
Link
p3244
(dp3245
g3
S'http://www.library.cornell.edu/resrch/libguides/4/'
p3246
sg5
g6
(g10
S'\xa1u\xf0\x14k\xafF?'
p3247
tp3248
Rp3249
sg16
g17
((lp3250
S'skip to main content'
p3251
aS'arts and humanities'
p3252
atp3253
Rp3254
sg30
S'library guides | cornell university library'
p3255
sbsI243
(i__main__
Link
p3256
(dp3257
g3
S'http://www.library.cornell.edu/resrch/libguides/40/'
p3258
sg5
g6
(g10
S'\xa1u\xf0\x14k\xafF?'
p3259
tp3260
Rp3261
sg16
g17
((lp3262
S'statistical information'
p3263
aS'skip to main content'
p3264
atp3265
Rp3266
sg30
S'library guides | cornell university library'
p3267
sbsI244
(i__main__
Link
p3268
(dp3269
g3
S'http://www.library.cornell.edu/resrch/libguides/41/'
p3270
sg5
g6
(g10
S'\xe1;o\x02\x80\x96F?'
p3271
tp3272
Rp3273
sg16
g17
((lp3274
S'ethnic studies'
p3275
aS'skip to main content'
p3276
atp3277
Rp3278
sg30
S'library guides | cornell university library'
p3279
sbsI245
(i__main__
Link
p3280
(dp3281
g3
S'http://www.library.cornell.edu/resrch/libguides/42/'
p3282
sg5
g6
(g10
S'\xa1u\xf0\x14k\xafF?'
p3283
tp3284
Rp3285
sg16
g17
((lp3286
S'skip to main content'
p3287
aS'theater, film and television'
p3288
atp3289
Rp3290
sg30
S'library guides | cornell university library'
p3291
sbsI246
(i__main__
Link
p3292
(dp3293
g3
S'http://www.library.cornell.edu/resrch/libguides/5/'
p3294
sg5
g6
(g10
S'\xa1u\xf0\x14k\xafF?'
p3295
tp3296
Rp3297
sg16
g17
((lp3298
S'skip to main content'
p3299
aS'biology'
p3300
atp3301
Rp3302
sg30
S'library guides | cornell university library'
p3303
sbsI247
(i__main__
Link
p3304
(dp3305
g3
S'http://www.library.cornell.edu/resrch/libguides/6/'
p3306
sg5
g6
(g10
S'\xa1u\xf0\x14k\xafF?'
p3307
tp3308
Rp3309
sg16
g17
((lp3310
S'skip to main content'
p3311
aS'business and management'
p3312
atp3313
Rp3314
sg30
S'library guides | cornell university library'
p3315
sbsI248
(i__main__
Link
p3316
(dp3317
g3
S'http://www.library.cornell.edu/resrch/libguides/7/'
p3318
sg5
g6
(g10
S'\xa1u\xf0\x14k\xafF?'
p3319
tp3320
Rp3321
sg16
g17
((lp3322
S'skip to main content'
p3323
aS'chemistry'
p3324
atp3325
Rp3326
sg30
S'library guides | cornell university library'
p3327
sbsI249
(i__main__
Link
p3328
(dp3329
g3
S'http://www.library.cornell.edu/resrch/libguides/8/'
p3330
sg5
g6
(g10
S'\xa1u\xf0\x14k\xafF?'
p3331
tp3332
Rp3333
sg16
g17
((lp3334
S'skip to main content'
p3335
aS'communications'
p3336
atp3337
Rp3338
sg30
S'library guides | cornell university library'
p3339
sbsI250
(i__main__
Link
p3340
(dp3341
g3
S'http://www.library.cornell.edu/resrch/libguides/9/'
p3342
sg5
g6
(g10
S'\xa1u\xf0\x14k\xafF?'
p3343
tp3344
Rp3345
sg16
g17
((lp3346
S'skip to main content'
p3347
aS'computers and information science'
p3348
atp3349
Rp3350
sg30
S'library guides | cornell university library'
p3351
sbsI251
(i__main__
Link
p3352
(dp3353
g3
S'http://www.library.cornell.edu/resrch/rsrchform/'
p3354
sg5
g6
(g10
S'\x01\xfd\x9c\x1b\xdf\x96\x82?'
p3355
tp3356
Rp3357
sg16
g17
((lp3358
S'skip to main content'
p3359
aS'consultations with librarians'
p3360
aS'research consultation appointment'
p3361
aS'research consultation'
p3362
atp3363
Rp3364
sg30
S'research consultation | cornell university library'
p3365
sbsI252
(i__main__
Link
p3366
(dp3367
g3
S'http://www.library.cornell.edu/sasa/sac.htm'
p3368
sg5
g6
(g10
S'\xf4\xd6^\x92\xf2j@?'
p3369
tp3370
Rp3371
sg16
g17
((lp3372
S'http://asia.library.cornell.edu/ac/southasia/'
p3373
atp3374
Rp3375
sg30
S'kroch south asia collections'
p3376
sbsI253
(i__main__
Link
p3377
(dp3378
g3
S'http://www.library.cornell.edu/scholarlycomm/affordable/'
p3379
sg5
g6
(g10
S'\x85\xec\xc6\xeb3Lr?'
p3380
tp3381
Rp3382
sg16
g17
((lp3383
S'affordable publishing'
p3384
aS'[1]'
p3385
aS'alternative publishing models'
p3386
atp3387
Rp3388
sg30
S'affordable publishing'
p3389
sbsI254
(i__main__
Link
p3390
(dp3391
g3
S'http://www.library.cornell.edu/scholarlycomm/copyright/'
p3392
sg5
g6
(g10
S'\x85\xec\xc6\xeb3Lr?'
p3393
tp3394
Rp3395
sg16
g17
((lp3396
S'copyright management'
p3397
aS'copyright of faculty publications'
p3398
atp3399
Rp3400
sg30
S'transforming scholarly communication and libraries'
p3401
sbsI255
(i__main__
Link
p3402
(dp3403
g3
S'http://www.library.cornell.edu/scholarlycomm/elsevier_canc2.html'
p3404
sg5
g6
(g10
S'O1(\x19\xe1\x91P?'
p3405
tp3406
Rp3407
sg16
g17
((lp3408
S'list'
p3409
atp3410
Rp3411
sg30
S'transforming scholarly communication and libraries'
p3412
sbsI256
(i__main__
Link
p3413
(dp3414
g3
S'http://www.library.cornell.edu/scholarlycomm/index.html'
p3415
sg5
g6
(g10
S'\xb0\x0ePA\x87\x16t?'
p3416
tp3417
Rp3418
sg16
g17
((lp3419
S'home'
p3420
aS'scholarly communications'
p3421
aS'transforming scholarly communication and libraries'
p3422
atp3423
Rp3424
sg30
S'transforming scholarly communication and libraries'
p3425
sbsI257
(i__main__
Link
p3426
(dp3427
g3
S'http://www.library.cornell.edu/scholarlycomm/openaccess/'
p3428
sg5
g6
(g10
S'\x85\xec\xc6\xeb3Lr?'
p3429
tp3430
Rp3431
sg16
g17
((lp3432
S'open access'
p3433
atp3434
Rp3435
sg30
S'open access | overview'
p3436
sbsI258
(i__main__
Link
p3437
(dp3438
g3
S'http://www.library.cornell.edu/scholarlycomm/resolution2.htm'
p3439
sg5
g6
(g10
S'O1(\x19\xe1\x91P?'
p3440
tp3441
Rp3442
sg16
g17
((lp3443
S'resolution'
p3444
aS'faculty senate resolution'
p3445
atp3446
Rp3447
sg30
S'transforming scholarly communication and libraries'
p3448
sbsI259
(i__main__
Link
p3449
(dp3450
g3
S'http://www.library.cornell.edu/scholarlycomm/serials/'
p3451
sg5
g6
(g10
S'\x85\xec\xc6\xeb3Lr?'
p3452
tp3453
Rp3454
sg16
g17
((lp3455
S'the crisis in scholarly publication prices'
p3456
aS'serials pricing'
p3457
atp3458
Rp3459
sg30
S'serials pricing | framing the topic'
p3460
sbsI260
(i__main__
Link
p3461
(dp3462
g3
S'http://www.library.cornell.edu/searchtips/'
p3463
sg5
g6
(g10
S'\x89\xd6=\xd7k\xb4d?'
p3464
tp3465
Rp3466
sg16
g17
((lp3467
S'skip to main content'
p3468
aS'search tips'
p3469
aS'search tips page for articles'
p3470
atp3471
Rp3472
sg30
S'search tips: articles | cornell university library'
p3473
sbsI261
(i__main__
Link
p3474
(dp3475
g3
S'http://www.library.cornell.edu/services/email.html'
p3476
sg5
g6
(g10
S'\x8b\xd7\xb6,\r\xc5\xa4?'
p3477
tp3478
Rp3479
sg16
g17
((lp3480
S'libraries'
p3481
aS'skip to main content'
p3482
atp3483
Rp3484
sg30
S'libraries | cornell university library'
p3485
sbsI262
(i__main__
Link
p3486
(dp3487
g3
S'http://www.library.cornell.edu/summon/about/'
p3488
sg5
g6
(g10
S'A\x1d5\xc2\xa3[@?'
p3489
tp3490
Rp3491
sg16
g17
((lp3492
S'skip to main content'
p3493
atp3494
Rp3495
sg30
S'about summon | cornell university library'
p3496
sbsI263
(i__main__
Link
p3497
(dp3498
g3
S'http://www.library.cornell.edu/svcs/'
p3499
sg5
g6
(g10
S'\xd4\xda\xb8\xc2~\xdb\xa4?'
p3500
tp3501
Rp3502
sg16
g17
((lp3503
S'skip to main content'
p3504
aS'library services'
p3505
atp3506
Rp3507
sg30
S'library services | cornell university library'
p3508
sbsI264
(i__main__
Link
p3509
(dp3510
g3
S'http://www.library.cornell.edu/svcs/borrow/'
p3511
sg5
g6
(g10
S'$\x0cS\xd2\xc7_\x83?'
p3512
tp3513
Rp3514
sg16
g17
((lp3515
S'borrowing and delivery'
p3516
aS'skip to main content'
p3517
aS'borrowing'
p3518
aS'delivery services'
p3519
atp3520
Rp3521
sg30
S'borrowing and delivery | cornell university library'
p3522
sbsI265
(i__main__
Link
p3523
(dp3524
g3
S'http://www.library.cornell.edu/svcs/borrow/2cul/'
p3525
sg5
g6
(g10
S'\xa2\xd6\xf8\xdd\x05\x8cl?'
p3526
tp3527
Rp3528
sg16
g17
((lp3529
S'2cul - borrowing privileges at columbia university libraries'
p3530
aS'skip to main content'
p3531
aS'more information'
p3532
atp3533
Rp3534
sg30
S'2cul: borrowing privileges at columbia university | cornell university library'
p3535
sbsI266
(i__main__
Link
p3536
(dp3537
g3
S'http://www.library.cornell.edu/svcs/borrow/bordir/'
p3538
sg5
g6
(g10
S'>\xa3\x18\xbeJ\xafo?'
p3539
tp3540
Rp3541
sg16
g17
((lp3542
S'skip to main content'
p3543
aS'http://www.library.cornell.edu/svcs/borrow/bordir'
p3544
aS'borrow direct'
p3545
aS'more info...'
p3546
atp3547
Rp3548
sg30
S'borrow direct | cornell university library'
p3549
sbsI267
(i__main__
Link
p3550
(dp3551
g3
S'http://www.library.cornell.edu/svcs/borrow/cardhldr/'
p3552
sg5
g6
(g10
S'\xc9\xb1Zz\xaall?'
p3553
tp3554
Rp3555
sg16
g17
((lp3556
S'skip to main content'
p3557
aS'library card holders (guest borrowers)'
p3558
aS'change in login procedure'
p3559
aS'information'
p3560
atp3561
Rp3562
sg30
S'card holder policies | cornell university library'
p3563
sbsI268
(i__main__
Link
p3564
(dp3565
g3
S'http://www.library.cornell.edu/svcs/borrow/chkd/'
p3566
sg5
g6
(g10
S'a&w9;\xa4L?'
p3567
tp3568
Rp3569
sg16
g17
((lp3570
S'items that are checked out'
p3571
aS'skip to main content'
p3572
aS'more info...'
p3573
aS'recall'
p3574
atp3575
Rp3576
sg30
S'items that are checked out | cornell university library'
p3577
sbsI269
(i__main__
Link
p3578
(dp3579
g3
S'http://www.library.cornell.edu/svcs/borrow/docdelfaq/'
p3580
sg5
g6
(g10
S'\xf3\x07\xda\x01H\xb8Q?'
p3581
tp3582
Rp3583
sg16
g17
((lp3584
S'document delivery'
p3585
aS'document delivery faq'
p3586
aS'document delivery request form'
p3587
aS'skip to main content'
p3588
aS'electronic document delivery'
p3589
atp3590
Rp3591
sg30
S'document delivery faq | cornell university library'
p3592
sbsI270
(i__main__
Link
p3593
(dp3594
g3
S'http://www.library.cornell.edu/svcs/borrow/facstaff/'
p3595
sg5
g6
(g10
S'\xfd\x16\x9f\x98+\x99I?'
p3596
tp3597
Rp3598
sg16
g17
((lp3599
S'skip to main content'
p3600
aS'faculty\xc2\xa0and staff'
p3601
atp3602
Rp3603
sg30
S'faculty and staff policies | cornell university library'
p3604
sbsI271
(i__main__
Link
p3605
(dp3606
g3
S'http://www.library.cornell.edu/svcs/borrow/grad/'
p3607
sg5
g6
(g10
S' \xb3\xa5\xd6\xd0\xabK?'
p3608
tp3609
Rp3610
sg16
g17
((lp3611
S'skip to main content'
p3612
aS'graduate student policies'
p3613
aS'graduate students'
p3614
atp3615
Rp3616
sg30
S'graduate student policies | cornell university library'
p3617
sbsI272
(i__main__
Link
p3618
(dp3619
g3
S'http://www.library.cornell.edu/svcs/borrow/gradnewstatus/'
p3620
sg5
g6
(g10
S'\x0b\xbaE\x97pYQ?'
p3621
tp3622
Rp3623
sg16
g17
((lp3624
S'skip to main content'
p3625
aS'graduate students (undergoing a change in status)'
p3626
aS'library\xc2\xa0privilege card'
p3627
aS'http://www.library.cornell.edu/svcs/borrow/gradnewstatus'
p3628
aS'see information about options'
p3629
atp3630
Rp3631
sg30
S'graduate students undergoing a change in status | cornell university library'
p3632
sbsI273
(i__main__
Link
p3633
(dp3634
g3
S'http://www.library.cornell.edu/svcs/borrow/illfaq/'
p3635
sg5
g6
(g10
S'B#\x8d\x1e\xa54P?'
p3636
tp3637
Rp3638
sg16
g17
((lp3639
S'skip to main content'
p3640
aS'interlibrary loan'
p3641
atp3642
Rp3643
sg30
S'interlibrary loan faq | cornell university library'
p3644
sbsI274
(i__main__
Link
p3645
(dp3646
g3
S'http://www.library.cornell.edu/svcs/borrow/othercul/'
p3647
sg5
g6
(g10
S'\x19\x0fK/\xc6\nZ?'
p3648
tp3649
Rp3650
sg16
g17
((lp3651
S'skip to main content'
p3652
aS'items in other cornell libraries'
p3653
aS'library-to-library book delivery service'
p3654
aS'more info...'
p3655
aS'http://www.library.cornell.edu/svcs/borrow/othercul'
p3656
atp3657
Rp3658
sg30
S'items in other cornell libraries | cornell university library'
p3659
sbsI275
(i__main__
Link
p3660
(dp3661
g3
S'http://www.library.cornell.edu/svcs/borrow/proxy/'
p3662
sg5
g6
(g10
S'A\x8eY^\xc2@K?'
p3663
tp3664
Rp3665
sg16
g17
((lp3666
S'skip to main content'
p3667
aS'proxy borrowers'
p3668
atp3669
Rp3670
sg30
S'proxy borrowers | cornell university library'
p3671
sbsI276
(i__main__
Link
p3672
(dp3673
g3
S'http://www.library.cornell.edu/svcs/borrow/renew/'
p3674
sg5
g6
(g10
S'\xac\xda\x00\xd9h\xb5I?'
p3675
tp3676
Rp3677
sg16
g17
((lp3678
S'skip to main content'
p3679
aS'renewing books'
p3680
aS'problems'
p3681
atp3682
Rp3683
sg30
S'renewing books | cornell university library'
p3684
sbsI277
(i__main__
Link
p3685
(dp3686
g3
S'http://www.library.cornell.edu/svcs/borrow/returning/'
p3687
sg5
g6
(g10
S'\x12\x99\x89\xb3\xa8\x80I?'
p3688
tp3689
Rp3690
sg16
g17
((lp3691
S'skip to main content'
p3692
aS'returning books'
p3693
atp3694
Rp3695
sg30
S'returning books | cornell university library'
p3696
sbsI278
(i__main__
Link
p3697
(dp3698
g3
S'http://www.library.cornell.edu/svcs/borrow/undergrad/'
p3699
sg5
g6
(g10
S'\xac\xda\x00\xd9h\xb5I?'
p3700
tp3701
Rp3702
sg16
g17
((lp3703
S'skip to main content'
p3704
aS'undergraduate students'
p3705
atp3706
Rp3707
sg30
S'undergraduate policies | cornell university library'
p3708
sbsI279
(i__main__
Link
p3709
(dp3710
g3
S'http://www.library.cornell.edu/svcs/disability/'
p3711
sg5
g6
(g10
S's\x98\x84\xf5J\x14\x7f?'
p3712
tp3713
Rp3714
sg16
g17
((lp3715
S'skip to main content'
p3716
aS'at resources'
p3717
aS'private study or work spaces'
p3718
aS'assistive technology devices'
p3719
aS'contact information'
p3720
aS'assistive technologies at the libraries'
p3721
aS'access to materials'
p3722
aS'disability services'
p3723
atp3724
Rp3725
sg30
S'disability services | cornell university library'
p3726
sbsI280
(i__main__
Link
p3727
(dp3728
g3
S'http://www.library.cornell.edu/svcs/equipment/other/'
p3729
sg5
g6
(g10
S'\xfe\xecV\xd9I\xb9G?'
p3730
tp3731
Rp3732
sg16
g17
((lp3733
S'skip to main content'
p3734
aS'http://www.library.cornell.edu/svcs/equipment/other'
p3735
atp3736
Rp3737
sg30
S'equipment | cornell university library'
p3738
sbsI281
(i__main__
Link
p3739
(dp3740
g3
S'http://www.library.cornell.edu/svcs/equipment/printing/'
p3741
sg5
g6
(g10
S'M\xa7}=\x17\x9bG?'
p3742
tp3743
Rp3744
sg16
g17
((lp3745
S'skip to main content'
p3746
aS'http://www.library.cornell.edu/svcs/equipment/printing'
p3747
atp3748
Rp3749
sg30
S'printing | cornell university library'
p3750
sbsI282
(i__main__
Link
p3751
(dp3752
g3
S'http://www.library.cornell.edu/svcs/equipment/tool_by_type/45/'
p3753
sg5
g6
(g10
S'7yN\xb3"\xf9A?'
p3754
tp3755
Rp3756
sg16
g17
((lp3757
S'skip to main content'
p3758
atp3759
Rp3760
sg30
S'cornell university library'
p3761
sbsI283
(i__main__
Link
p3762
(dp3763
g3
S'http://www.library.cornell.edu/svcs/grad/'
p3764
sg5
g6
(g10
S'\x1eVPgw\x06v?'
p3765
tp3766
Rp3767
sg16
g17
((lp3768
S'for grad students'
p3769
aS'for graduate students'
p3770
aS'skip to main content'
p3771
atp3772
Rp3773
sg30
S'for graduate students | cornell university library'
p3774
sbsI284
(i__main__
Link
p3775
(dp3776
g3
S'http://www.library.cornell.edu/svcs/libraryspaces/'
p3777
sg5
g6
(g10
S'bj\xea\xb9\x92\x04y?'
p3778
tp3779
Rp3780
sg16
g17
((lp3781
S'skip to main content'
p3782
aS'library spaces'
p3783
aS'select library spaces'
p3784
atp3785
Rp3786
sg30
S'select library spaces | cornell university library'
p3787
sbsI285
(i__main__
Link
p3788
(dp3789
g3
S'http://www.library.cornell.edu/svcs/libraryspaces/libspacesxtype/'
p3790
sg5
g6
(g10
S'L\xe5]B\xb90S?'
p3791
tp3792
Rp3793
sg16
g17
((lp3794
S'skip to main content'
p3795
ag220
aS'all library spaces'
p3796
aS'\xe2\x80\xb9 previous'
p3797
aS'\xc2\xab first'
p3798
atp3799
Rp3800
sg30
S'all library spaces | cornell university library'
p3801
sbsI286
(i__main__
Link
p3802
(dp3803
g3
S'http://www.library.cornell.edu/svcs/libraryspaces/libspacesxtype/24/'
p3804
sg5
g6
(g10
S'\xc4Y\x9c\xb6.|H?'
p3805
tp3806
Rp3807
sg16
g17
((lp3808
S'skip to main content'
p3809
aS'caf\xc3\xa9s'
p3810
atp3811
Rp3812
sg30
S'library spaces: cafe | cornell university library'
p3813
sbsI287
(i__main__
Link
p3814
(dp3815
g3
S'http://www.library.cornell.edu/svcs/libraryspaces/libspacesxtype/37/'
p3816
sg5
g6
(g10
S'\xc4Y\x9c\xb6.|H?'
p3817
tp3818
Rp3819
sg16
g17
((lp3820
S'skip to main content'
p3821
aS'auditoriums'
p3822
atp3823
Rp3824
sg30
S'library spaces: auditorium | cornell university library'
p3825
sbsI288
(i__main__
Link
p3826
(dp3827
g3
S'http://www.library.cornell.edu/svcs/libraryspaces/libspacesxtype/38/'
p3828
sg5
g6
(g10
S'\xc4Y\x9c\xb6.|H?'
p3829
tp3830
Rp3831
sg16
g17
((lp3832
S'skip to main content'
p3833
aS'classrooms'
p3834
atp3835
Rp3836
sg30
S'library spaces: classroom | cornell university library'
p3837
sbsI289
(i__main__
Link
p3838
(dp3839
g3
S'http://www.library.cornell.edu/svcs/libraryspaces/libspacesxtype/39/'
p3840
sg5
g6
(g10
S'\x9e3+\x1a\xac\xb3O?'
p3841
tp3842
Rp3843
sg16
g17
((lp3844
S'skip to main content'
p3845
aS'http://www.library.cornell.edu/svcs/libraryspaces/libspacesxtype/39'
p3846
aS'computer labs'
p3847
atp3848
Rp3849
sg30
S'library spaces: computer lab | cornell university library'
p3850
sbsI290
(i__main__
Link
p3851
(dp3852
g3
S'http://www.library.cornell.edu/svcs/libraryspaces/libspacesxtype/40/'
p3853
sg5
g6
(g10
S'\x06\xfb\xf7YSLP?'
p3854
tp3855
Rp3856
sg16
g17
((lp3857
g220
aS'\xc2\xab first'
p3858
aS'\xe2\x80\xb9 previous'
p3859
aS'skip to main content'
p3860
aS'http://www.library.cornell.edu/svcs/libraryspaces/libspacesxtype/40'
p3861
aS'group study rooms'
p3862
atp3863
Rp3864
sg30
S'library spaces: group study room | cornell university library'
p3865
sbsI291
(i__main__
Link
p3866
(dp3867
g3
S'http://www.library.cornell.edu/svcs/libraryspaces/libspacesxtype/40?page=1/'
p3868
sg5
g6
(g10
S'\x8f\xac\x8e\xd3A\x0eB?'
p3869
tp3870
Rp3871
sg16
g17
((lp3872
S'skip to main content'
p3873
aS'next \xe2\x80\xba'
p3874
aS'last \xc2\xbb'
p3875
ag226
atp3876
Rp3877
sg30
S'library spaces: group study room | cornell university library'
p3878
sbsI292
(i__main__
Link
p3879
(dp3880
g3
S'http://www.library.cornell.edu/svcs/libraryspaces/libspacesxtype/41/'
p3881
sg5
g6
(g10
S'\x8e\x1c\x87\x0f\x8a\x17G?'
p3882
tp3883
Rp3884
sg16
g17
((lp3885
S'skip to main content'
p3886
ag220
aS'\xc2\xab first'
p3887
aS'library spaces: meeting room'
p3888
aS'\xe2\x80\xb9 previous'
p3889
atp3890
Rp3891
sg30
S'library spaces: meeting room | cornell university library'
p3892
sbsI293
(i__main__
Link
p3893
(dp3894
g3
S'http://www.library.cornell.edu/svcs/libraryspaces/libspacesxtype/41/53/'
p3895
sg5
g6
(g10
S'\x90\xc0Y\xb4\xbcdH?'
p3896
tp3897
Rp3898
sg16
g17
((lp3899
S'students'
p3900
aS'skip to main content'
p3901
atp3902
Rp3903
sg30
S'library spaces: meeting room for students | cornell university library'
p3904
sbsI294
(i__main__
Link
p3905
(dp3906
g3
S'http://www.library.cornell.edu/svcs/libraryspaces/libspacesxtype/41/54/'
p3907
sg5
g6
(g10
S'\x14\x9d\x13\x9f\x01<I?'
p3908
tp3909
Rp3910
sg16
g17
((lp3911
S'skip to main content'
p3912
ag220
aS'\xc2\xab first'
p3913
aS'\xe2\x80\xb9 previous'
p3914
aS'faculty'
p3915
atp3916
Rp3917
sg30
S'library spaces: meeting room for faculty | cornell university library'
p3918
sbsI295
(i__main__
Link
p3919
(dp3920
g3
S'http://www.library.cornell.edu/svcs/libraryspaces/libspacesxtype/41/54?page=1/'
p3921
sg5
g6
(g10
S'\xdf\xf9\x107i\x80A?'
p3922
tp3923
Rp3924
sg16
g17
((lp3925
S'skip to main content'
p3926
aS'next \xe2\x80\xba'
p3927
aS'last \xc2\xbb'
p3928
ag226
atp3929
Rp3930
sg30
S'library spaces: meeting room for faculty | cornell university library'
p3931
sbsI296
(i__main__
Link
p3932
(dp3933
g3
S'http://www.library.cornell.edu/svcs/libraryspaces/libspacesxtype/41/55/'
p3934
sg5
g6
(g10
S'\x14\x9d\x13\x9f\x01<I?'
p3935
tp3936
Rp3937
sg16
g17
((lp3938
S'skip to main content'
p3939
ag220
aS'\xc2\xab first'
p3940
aS'\xe2\x80\xb9 previous'
p3941
aS'staff'
p3942
atp3943
Rp3944
sg30
S'library spaces: meeting room for staff | cornell university library'
p3945
sbsI297
(i__main__
Link
p3946
(dp3947
g3
S'http://www.library.cornell.edu/svcs/libraryspaces/libspacesxtype/41/55?page=1/'
p3948
sg5
g6
(g10
S'\xe0\xf9\x107i\x80A?'
p3949
tp3950
Rp3951
sg16
g17
((lp3952
S'skip to main content'
p3953
aS'next \xe2\x80\xba'
p3954
aS'last \xc2\xbb'
p3955
ag226
atp3956
Rp3957
sg30
S'library spaces: meeting room for staff | cornell university library'
p3958
sbsI298
(i__main__
Link
p3959
(dp3960
g3
S'http://www.library.cornell.edu/svcs/libraryspaces/libspacesxtype/41?page=1/'
p3961
sg5
g6
(g10
S'\x08|\xbb\xf3\xbe\x85A?'
p3962
tp3963
Rp3964
sg16
g17
((lp3965
S'skip to main content'
p3966
aS'next \xe2\x80\xba'
p3967
aS'last \xc2\xbb'
p3968
ag226
atp3969
Rp3970
sg30
S'library spaces: meeting room | cornell university library'
p3971
sbsI299
(i__main__
Link
p3972
(dp3973
g3
S'http://www.library.cornell.edu/svcs/libraryspaces/libspacesxtype?page=1/'
p3974
sg5
g6
(g10
S'\xbc\xd4i\xb9\xf3\x00F?'
p3975
tp3976
Rp3977
sg16
g17
((lp3978
S'skip to main content'
p3979
aS'next \xe2\x80\xba'
p3980
ag226
aS'\xe2\x80\xb9 previous'
p3981
atp3982
Rp3983
sg30
S'all library spaces | cornell university library'
p3984
sbsI300
(i__main__
Link
p3985
(dp3986
g3
S'http://www.library.cornell.edu/svcs/libraryspaces/libspacesxtype?page=2/'
p3987
sg5
g6
(g10
S'\xbc\xd4i\xb9\xf3\x00F?'
p3988
tp3989
Rp3990
sg16
g17
((lp3991
S'skip to main content'
p3992
ag225
aS'next \xe2\x80\xba'
p3993
aS'\xe2\x80\xb9 previous'
p3994
atp3995
Rp3996
sg30
S'all library spaces | cornell university library'
p3997
sbsI301
(i__main__
Link
p3998
(dp3999
g3
S'http://www.library.cornell.edu/svcs/libraryspaces/libspacesxtype?page=3/'
p4000
sg5
g6
(g10
S'\xbc\xd4i\xb9\xf3\x00F?'
p4001
tp4002
Rp4003
sg16
g17
((lp4004
S'skip to main content'
p4005
aS'next \xe2\x80\xba'
p4006
ag227
aS'\xe2\x80\xb9 previous'
p4007
atp4008
Rp4009
sg30
S'all library spaces | cornell university library'
p4010
sbsI302
(i__main__
Link
p4011
(dp4012
g3
S'http://www.library.cornell.edu/svcs/libraryspaces/libspacesxtype?page=4/'
p4013
sg5
g6
(g10
S'\xbc\xd4i\xb9\xf3\x00F?'
p4014
tp4015
Rp4016
sg16
g17
((lp4017
S'skip to main content'
p4018
aS'next \xe2\x80\xba'
p4019
ag2556
aS'\xe2\x80\xb9 previous'
p4020
atp4021
Rp4022
sg30
S'all library spaces | cornell university library'
p4023
sbsI303
(i__main__
Link
p4024
(dp4025
g3
S'http://www.library.cornell.edu/svcs/libraryspaces/libspacesxtype?page=5/'
p4026
sg5
g6
(g10
S'\xbc\xd4i\xb9\xf3\x00F?'
p4027
tp4028
Rp4029
sg16
g17
((lp4030
S'skip to main content'
p4031
aS'last \xc2\xbb'
p4032
aS'next \xe2\x80\xba'
p4033
ag2527
atp4034
Rp4035
sg30
S'all library spaces | cornell university library'
p4036
sbsI304
(i__main__
Link
p4037
(dp4038
g3
S'http://www.library.cornell.edu/svcs/serve/'
p4039
sg5
g6
(g10
S'^uks{\x14\x81?'
p4040
tp4041
Rp4042
sg16
g17
((lp4043
S'skip to main content'
p4044
aS'for faculty and instructors'
p4045
atp4046
Rp4047
sg30
S'for faculty and instructors | cornell university library'
p4048
sbsI305
(i__main__
Link
p4049
(dp4050
g3
S'http://www.library.cornell.edu/svcs/serve/classinst/'
p4051
sg5
g6
(g10
S'\x82\x1e\xb3\xf2\xf2\xe6w?'
p4052
tp4053
Rp4054
sg16
g17
((lp4055
S'workshops and instruction'
p4056
aS'skip to main content'
p4057
aS'workshops and instruction sessions'
p4058
atp4059
Rp4060
sg30
S'workshops and instruction | cornell university library'
p4061
sbsI306
(i__main__
Link
p4062
(dp4063
g3
S'http://www.library.cornell.edu/svcs/serve/office/'
p4064
sg5
g6
(g10
S'\x1f\x07\xca\x12\xa3\xf1R?'
p4065
tp4066
Rp4067
sg16
g17
((lp4068
S'books to be delivered to faculty offices'
p4069
aS'skip to main content'
p4070
aS'more info...'
p4071
aS'office delivery'
p4072
atp4073
Rp4074
sg30
S'faculty office delivery | cornell university library'
p4075
sbsI307
(i__main__
Link
p4076
(dp4077
g3
S'http://www.library.cornell.edu/svcs/serve/res/'
p4078
sg5
g6
(g10
S'\x19\xf2?\x81\xce\x07q?'
p4079
tp4080
Rp4081
sg16
g17
((lp4082
S'skip to main content'
p4083
aS'course reserves'
p4084
aS'course reserves for faculty and instructors'
p4085
atp4086
Rp4087
sg30
S'course reserves | cornell university library'
p4088
sbsI308
(i__main__
Link
p4089
(dp4090
g3
S'http://www.library.cornell.edu/svcs/serve/res/printforms/'
p4091
sg5
g6
(g10
S'\xc9\x81\x1ePZ\x82G?'
p4092
tp4093
Rp4094
sg16
g17
((lp4095
S'skip to main content'
p4096
aS'printable forms'
p4097
atp4098
Rp4099
sg30
S'printable reserve forms | cornell university library'
p4100
sbsI309
(i__main__
Link
p4101
(dp4102
g3
S'http://www.library.cornell.edu/svcs/serve/res/resinfo/'
p4103
sg5
g6
(g10
S'\xf5\xdd\x88\xf3<\xd0H?'
p4104
tp4105
Rp4106
sg16
g17
((lp4107
S'reserves processing system (instructions)'
p4108
ag936
aS'copyright'
p4109
aS'blackboard processin'
p4110
aS'e-reserve'
p4111
aS'general information about reserves'
p4112
aS'electronic reserves through blackboard'
p4113
aS'skip to main content'
p4114
aS'general reserve information'
p4115
aS'create a new reserve list'
p4116
aS'placing items on reserve in the library'
p4117
aS'in-library reserve'
p4118
atp4119
Rp4120
sg30
S'general reserve information | cornell university library'
p4121
sbsI310
(i__main__
Link
p4122
(dp4123
g3
S'http://www.library.cornell.edu/svcs/serve/res/resinfo/linking/'
p4124
sg5
g6
(g10
S'\xf5\xdd\x88\xf3<\xd0H?'
p4125
tp4126
Rp4127
sg16
g17
((lp4128
S'how to create links to library resources'
p4129
aS'individual articles'
p4130
aS'openurl links'
p4131
aS'skip to main content'
p4132
aS'linking to library resources'
p4133
aS'cornell-restricted databases and e-journals'
p4134
atp4135
Rp4136
sg30
S'linking to library resources | cornell university library'
p4137
sbsI311
(i__main__
Link
p4138
(dp4139
g3
S'http://www.library.cornell.edu/svcs/serve/scholarly/'
p4140
sg5
g6
(g10
S'\xd3Ai\x17\xe4|}?'
p4141
tp4142
Rp4143
sg16
g17
((lp4144
S'skip to main content'
p4145
aS'scholarly publishing'
p4146
aS'digitization, publishing, and copyright'
p4147
aS'digitization and digital content mangement'
p4148
atp4149
Rp4150
sg30
S'digitization, publishing, and copyright | cornell university library'
p4151
sbsI312
(i__main__
Link
p4152
(dp4153
g3
S'http://www.library.cornell.edu/svcs/socialnetworking/'
p4154
sg5
g6
(g10
S'\x06\x13J\xd5\x03\x90b?'
p4155
tp4156
Rp4157
sg16
g17
((lp4158
S'skip to main content'
p4159
aS'social-networking practices'
p4160
atp4161
Rp4162
sg30
S'social-networking practices | cornell university library'
p4163
sbsI313
(i__main__
Link
p4164
(dp4165
g3
S'http://www.library.cornell.edu/svcs/workinst/coord/'
p4166
sg5
g6
(g10
S'\x8cZ-\x8cwZT?'
p4167
tp4168
Rp4169
sg16
g17
((lp4170
S'contact an instruction coordinator.'
p4171
aS'skip to main content'
p4172
aS'instruction coordinator'
p4173
atp4174
Rp4175
sg30
S'instruction coordinators | cornell university library'
p4176
sbsI314
(i__main__
Link
p4177
(dp4178
g3
S'http://www.library.cornell.edu/taxonomy/term/6/'
p4179
sg5
g6
(g10
S'_v)\x16\xf9WD?'
p4180
tp4181
Rp4182
sg16
g17
((lp4183
S'skip to main content'
p4184
ag220
aS'\xc2\xab first'
p4185
aS'\xe2\x80\xb9 previous'
p4186
atp4187
Rp4188
sg30
S'we recommend | cornell university library'
p4189
sbsI315
(i__main__
Link
p4190
(dp4191
g3
S'http://www.library.cornell.edu/taxonomy/term/6?page=1/'
p4192
sg5
g6
(g10
S'_v)\x16\xf9WD?'
p4193
tp4194
Rp4195
sg16
g17
((lp4196
S'skip to main content'
p4197
aS'next \xe2\x80\xba'
p4198
ag226
aS'\xe2\x80\xb9 previous'
p4199
atp4200
Rp4201
sg30
S'we recommend | cornell university library'
p4202
sbsI316
(i__main__
Link
p4203
(dp4204
g3
S'http://www.library.cornell.edu/taxonomy/term/6?page=2/'
p4205
sg5
g6
(g10
S'_v)\x16\xf9WD?'
p4206
tp4207
Rp4208
sg16
g17
((lp4209
S'skip to main content'
p4210
ag225
aS'next \xe2\x80\xba'
p4211
aS'\xe2\x80\xb9 previous'
p4212
atp4213
Rp4214
sg30
S'we recommend | cornell university library'
p4215
sbsI317
(i__main__
Link
p4216
(dp4217
g3
S'http://www.library.cornell.edu/taxonomy/term/6?page=3/'
p4218
sg5
g6
(g10
S'_v)\x16\xf9WD?'
p4219
tp4220
Rp4221
sg16
g17
((lp4222
S'skip to main content'
p4223
aS'next \xe2\x80\xba'
p4224
ag227
aS'\xe2\x80\xb9 previous'
p4225
atp4226
Rp4227
sg30
S'we recommend | cornell university library'
p4228
sbsI318
(i__main__
Link
p4229
(dp4230
g3
S'http://www.library.cornell.edu/taxonomy/term/6?page=4/'
p4231
sg5
g6
(g10
S'_v)\x16\xf9WD?'
p4232
tp4233
Rp4234
sg16
g17
((lp4235
S'skip to main content'
p4236
aS'last \xc2\xbb'
p4237
aS'next \xe2\x80\xba'
p4238
ag2556
atp4239
Rp4240
sg30
S'we recommend | cornell university library'
p4241
sbsI319
(i__main__
Link
p4242
(dp4243
g3
S'http://www.library.cornell.edu/TROLS/'
p4244
sg5
g6
(g10
S'F\xefE\xc9\x90p@?'
p4245
tp4246
Rp4247
sg16
g17
((lp4248
S'skip to main content'
p4249
atp4250
Rp4251
sg30
S'teaching, research, outreach, and learning services | cornell university library'
p4252
sbsI320
(i__main__
Link
p4253
(dp4254
g3
S'http://www.library.cornell.edu/visualresources/copyright/'
p4255
sg5
g6
(g10
S'\xd0b\xe73>2J?'
p4256
tp4257
Rp4258
sg16
g17
((lp4259
S'skip to main content'
p4260
aS'copyright'
p4261
atp4262
Rp4263
sg30
S'copyright | cornell university library'
p4264
sbsI321
(i__main__
Link
p4265
(dp4266
g3
S'http://www.library.cornell.edu/visualresources/digitization/'
p4267
sg5
g6
(g10
S'\xd0b\xe73>2J?'
p4268
tp4269
Rp4270
sg16
g17
((lp4271
S'skip to main content'
p4272
aS'self-service scanning facilities'
p4273
aS'digitization'
p4274
atp4275
Rp4276
sg30
S'digitization | cornell university library'
p4277
sbsI322
(i__main__
Link
p4278
(dp4279
g3
S'http://www.library.cornell.edu/visualresources/equipment/'
p4280
sg5
g6
(g10
S'\xd0b\xe73>2J?'
p4281
tp4282
Rp4283
sg16
g17
((lp4284
S'skip to main content'
p4285
aS'equipment & software'
p4286
atp4287
Rp4288
sg30
S'equipment & software | cornell university library'
p4289
sbsI323
(i__main__
Link
p4290
(dp4291
g3
S'http://www.library.cornell.edu/visualresources/faq/'
p4292
sg5
g6
(g10
S'\xd0b\xe73>2J?'
p4293
tp4294
Rp4295
sg16
g17
((lp4296
S'skip to main content'
p4297
aS'faq'
p4298
atp4299
Rp4300
sg30
S'faq | cornell university library'
p4301
sbsI324
(i__main__
Link
p4302
(dp4303
g3
S'http://www.library.cornell.edu/visualresources/support/'
p4304
sg5
g6
(g10
S'\xd0b\xe73>2J?'
p4305
tp4306
Rp4307
sg16
g17
((lp4308
S'skip to main content'
p4309
aS'research support'
p4310
atp4311
Rp4312
sg30
S'research support | cornell university library'
p4313
sbsI325
(i__main__
Link
p4314
(dp4315
g3
S'http://www.library.cornell.edu/visualresources/tools/'
p4316
sg5
g6
(g10
S'\x13@\xbb;\xfbSj?'
p4317
tp4318
Rp4319
sg16
g17
((lp4320
S'skip to main content'
p4321
aS'visual resources'
p4322
aS'research tools'
p4323
aS'visual resources web page'
p4324
atp4325
Rp4326
sg30
S'research tools | cornell university library'
p4327
sbsI326
(i__main__
Link
p4328
(dp4329
g3
S'http://www.library.cornell.edu/wclsearchtips/'
p4330
sg5
g6
(g10
S'\xf1\x0f\xba\x15V\x07e?'
p4331
tp4332
Rp4333
sg16
g17
((lp4334
S'skip to main content'
p4335
aS'search tips'
p4336
aS'catalog search tips'
p4337
atp4338
Rp4339
sg30
S'search tips: catalog | cornell university library'
p4340
sbsI327
(i__main__
Link
p4341
(dp4342
g3
S'http://www.library.cornell.edu/wheredoi/software.html'
p4343
sg5
g6
(g10
S'\xc6\xcb\xedW0,F?'
p4344
tp4345
Rp4346
sg16
g17
((lp4347
S'http://www.library.cornell.edu/wheredoi/software.html'
p4348
atp4349
Rp4350
sg30
S'software in the libraries'
p4351
sbs.